
washing_machine2.elf:     file format elf32-avr

Sections:
Idx Name          Size      VMA       LMA       File off  Algn
  0 .text         0000206a  00000000  00000000  00000094  2**1
                  CONTENTS, ALLOC, LOAD, READONLY, CODE
  1 .data         0000018a  00800060  0000206a  000020fe  2**0
                  CONTENTS, ALLOC, LOAD, DATA
  2 .bss          0000001e  008001ea  008001ea  00002288  2**0
                  ALLOC

Disassembly of section .text:

00000000 <__vectors>:
       0:	0c 94 2a 00 	jmp	0x54	; 0x54 <__ctors_end>
       4:	0c 94 0b 04 	jmp	0x816	; 0x816 <__vector_1>
       8:	0c 94 35 04 	jmp	0x86a	; 0x86a <__vector_2>
       c:	0c 94 5f 04 	jmp	0x8be	; 0x8be <__vector_3>
      10:	0c 94 47 00 	jmp	0x8e	; 0x8e <__bad_interrupt>
      14:	0c 94 47 00 	jmp	0x8e	; 0x8e <__bad_interrupt>
      18:	0c 94 47 00 	jmp	0x8e	; 0x8e <__bad_interrupt>
      1c:	0c 94 47 00 	jmp	0x8e	; 0x8e <__bad_interrupt>
      20:	0c 94 47 00 	jmp	0x8e	; 0x8e <__bad_interrupt>
      24:	0c 94 47 00 	jmp	0x8e	; 0x8e <__bad_interrupt>
      28:	0c 94 47 00 	jmp	0x8e	; 0x8e <__bad_interrupt>
      2c:	0c 94 e5 03 	jmp	0x7ca	; 0x7ca <__vector_11>
      30:	0c 94 47 00 	jmp	0x8e	; 0x8e <__bad_interrupt>
      34:	0c 94 47 00 	jmp	0x8e	; 0x8e <__bad_interrupt>
      38:	0c 94 47 00 	jmp	0x8e	; 0x8e <__bad_interrupt>
      3c:	0c 94 47 00 	jmp	0x8e	; 0x8e <__bad_interrupt>
      40:	0c 94 47 00 	jmp	0x8e	; 0x8e <__bad_interrupt>
      44:	0c 94 47 00 	jmp	0x8e	; 0x8e <__bad_interrupt>
      48:	0c 94 47 00 	jmp	0x8e	; 0x8e <__bad_interrupt>
      4c:	0c 94 47 00 	jmp	0x8e	; 0x8e <__bad_interrupt>
      50:	0c 94 47 00 	jmp	0x8e	; 0x8e <__bad_interrupt>

00000054 <__ctors_end>:
      54:	11 24       	eor	r1, r1
      56:	1f be       	out	0x3f, r1	; 63
      58:	cf e5       	ldi	r28, 0x5F	; 95
      5a:	d4 e0       	ldi	r29, 0x04	; 4
      5c:	de bf       	out	0x3e, r29	; 62
      5e:	cd bf       	out	0x3d, r28	; 61

00000060 <__do_copy_data>:
      60:	11 e0       	ldi	r17, 0x01	; 1
      62:	a0 e6       	ldi	r26, 0x60	; 96
      64:	b0 e0       	ldi	r27, 0x00	; 0
      66:	ea e6       	ldi	r30, 0x6A	; 106
      68:	f0 e2       	ldi	r31, 0x20	; 32
      6a:	02 c0       	rjmp	.+4      	; 0x70 <.do_copy_data_start>

0000006c <.do_copy_data_loop>:
      6c:	05 90       	lpm	r0, Z+
      6e:	0d 92       	st	X+, r0

00000070 <.do_copy_data_start>:
      70:	aa 3e       	cpi	r26, 0xEA	; 234
      72:	b1 07       	cpc	r27, r17
      74:	d9 f7       	brne	.-10     	; 0x6c <.do_copy_data_loop>

00000076 <__do_clear_bss>:
      76:	12 e0       	ldi	r17, 0x02	; 2
      78:	aa ee       	ldi	r26, 0xEA	; 234
      7a:	b1 e0       	ldi	r27, 0x01	; 1
      7c:	01 c0       	rjmp	.+2      	; 0x80 <.do_clear_bss_start>

0000007e <.do_clear_bss_loop>:
      7e:	1d 92       	st	X+, r1

00000080 <.do_clear_bss_start>:
      80:	a8 30       	cpi	r26, 0x08	; 8
      82:	b1 07       	cpc	r27, r17
      84:	e1 f7       	brne	.-8      	; 0x7e <.do_clear_bss_loop>
      86:	0e 94 52 0d 	call	0x1aa4	; 0x1aa4 <main>
      8a:	0c 94 33 10 	jmp	0x2066	; 0x2066 <_exit>

0000008e <__bad_interrupt>:
      8e:	0c 94 00 00 	jmp	0	; 0x0 <__vectors>

00000092 <Machine_Manual_Init>:
      92:	81 e0       	ldi	r24, 0x01	; 1
      94:	08 95       	ret

00000096 <Machine_Select_Mode>:
      96:	df 93       	push	r29
      98:	cf 93       	push	r28
      9a:	00 d0       	rcall	.+0      	; 0x9c <Machine_Select_Mode+0x6>
      9c:	cd b7       	in	r28, 0x3d	; 61
      9e:	de b7       	in	r29, 0x3e	; 62
      a0:	81 e0       	ldi	r24, 0x01	; 1
      a2:	89 83       	std	Y+1, r24	; 0x01
      a4:	8a 83       	std	Y+2, r24	; 0x02
      a6:	87 e7       	ldi	r24, 0x77	; 119
      a8:	91 e0       	ldi	r25, 0x01	; 1
      aa:	be 01       	movw	r22, r28
      ac:	6f 5f       	subi	r22, 0xFF	; 255
      ae:	7f 4f       	sbci	r23, 0xFF	; 255
      b0:	0e 94 60 0b 	call	0x16c0	; 0x16c0 <button_read_state>
      b4:	8e e3       	ldi	r24, 0x3E	; 62
      b6:	91 e0       	ldi	r25, 0x01	; 1
      b8:	be 01       	movw	r22, r28
      ba:	6e 5f       	subi	r22, 0xFE	; 254
      bc:	7f 4f       	sbci	r23, 0xFF	; 255
      be:	0e 94 60 0b 	call	0x16c0	; 0x16c0 <button_read_state>
      c2:	99 81       	ldd	r25, Y+1	; 0x01
      c4:	99 23       	and	r25, r25
      c6:	31 f4       	brne	.+12     	; 0xd4 <Machine_Select_Mode+0x3e>
      c8:	8a 81       	ldd	r24, Y+2	; 0x02
      ca:	81 30       	cpi	r24, 0x01	; 1
      cc:	19 f4       	brne	.+6      	; 0xd4 <Machine_Select_Mode+0x3e>
      ce:	10 92 2e 01 	sts	0x012E, r1
      d2:	0f c0       	rjmp	.+30     	; 0xf2 <Machine_Select_Mode+0x5c>
      d4:	8a 81       	ldd	r24, Y+2	; 0x02
      d6:	88 23       	and	r24, r24
      d8:	49 f4       	brne	.+18     	; 0xec <Machine_Select_Mode+0x56>
      da:	91 30       	cpi	r25, 0x01	; 1
      dc:	19 f4       	brne	.+6      	; 0xe4 <Machine_Select_Mode+0x4e>
      de:	90 93 2e 01 	sts	0x012E, r25
      e2:	07 c0       	rjmp	.+14     	; 0xf2 <Machine_Select_Mode+0x5c>
      e4:	99 23       	and	r25, r25
      e6:	11 f4       	brne	.+4      	; 0xec <Machine_Select_Mode+0x56>
      e8:	83 e0       	ldi	r24, 0x03	; 3
      ea:	01 c0       	rjmp	.+2      	; 0xee <Machine_Select_Mode+0x58>
      ec:	82 e0       	ldi	r24, 0x02	; 2
      ee:	80 93 2e 01 	sts	0x012E, r24
      f2:	81 e0       	ldi	r24, 0x01	; 1
      f4:	0f 90       	pop	r0
      f6:	0f 90       	pop	r0
      f8:	cf 91       	pop	r28
      fa:	df 91       	pop	r29
      fc:	08 95       	ret

000000fe <Machine_Lcd>:
      fe:	8d e7       	ldi	r24, 0x7D	; 125
     100:	91 e0       	ldi	r25, 0x01	; 1
     102:	61 e0       	ldi	r22, 0x01	; 1
     104:	41 e0       	ldi	r20, 0x01	; 1
     106:	20 e6       	ldi	r18, 0x60	; 96
     108:	30 e0       	ldi	r19, 0x00	; 0
     10a:	30 e0       	ldi	r19, 0x00	; 0
     10c:	0e 94 eb 09 	call	0x13d6	; 0x13d6 <lcd_4bit_send_string_pos>
     110:	80 91 2e 01 	lds	r24, 0x012E
     114:	81 30       	cpi	r24, 0x01	; 1
     116:	09 f0       	breq	.+2      	; 0x11a <Machine_Lcd+0x1c>
     118:	45 c0       	rjmp	.+138    	; 0x1a4 <Machine_Lcd+0xa6>
     11a:	80 91 2d 01 	lds	r24, 0x012D
     11e:	88 23       	and	r24, r24
     120:	39 f4       	brne	.+14     	; 0x130 <Machine_Lcd+0x32>
     122:	8d e7       	ldi	r24, 0x7D	; 125
     124:	91 e0       	ldi	r25, 0x01	; 1
     126:	61 e0       	ldi	r22, 0x01	; 1
     128:	41 e0       	ldi	r20, 0x01	; 1
     12a:	22 e7       	ldi	r18, 0x72	; 114
     12c:	30 e0       	ldi	r19, 0x00	; 0
     12e:	38 c0       	rjmp	.+112    	; 0x1a0 <Machine_Lcd+0xa2>
     130:	81 30       	cpi	r24, 0x01	; 1
     132:	39 f4       	brne	.+14     	; 0x142 <Machine_Lcd+0x44>
     134:	8d e7       	ldi	r24, 0x7D	; 125
     136:	91 e0       	ldi	r25, 0x01	; 1
     138:	61 e0       	ldi	r22, 0x01	; 1
     13a:	41 e0       	ldi	r20, 0x01	; 1
     13c:	28 e7       	ldi	r18, 0x78	; 120
     13e:	30 e0       	ldi	r19, 0x00	; 0
     140:	2f c0       	rjmp	.+94     	; 0x1a0 <Machine_Lcd+0xa2>
     142:	82 30       	cpi	r24, 0x02	; 2
     144:	39 f4       	brne	.+14     	; 0x154 <Machine_Lcd+0x56>
     146:	8d e7       	ldi	r24, 0x7D	; 125
     148:	91 e0       	ldi	r25, 0x01	; 1
     14a:	61 e0       	ldi	r22, 0x01	; 1
     14c:	41 e0       	ldi	r20, 0x01	; 1
     14e:	2f e7       	ldi	r18, 0x7F	; 127
     150:	30 e0       	ldi	r19, 0x00	; 0
     152:	26 c0       	rjmp	.+76     	; 0x1a0 <Machine_Lcd+0xa2>
     154:	83 30       	cpi	r24, 0x03	; 3
     156:	39 f4       	brne	.+14     	; 0x166 <Machine_Lcd+0x68>
     158:	8d e7       	ldi	r24, 0x7D	; 125
     15a:	91 e0       	ldi	r25, 0x01	; 1
     15c:	61 e0       	ldi	r22, 0x01	; 1
     15e:	41 e0       	ldi	r20, 0x01	; 1
     160:	25 e8       	ldi	r18, 0x85	; 133
     162:	30 e0       	ldi	r19, 0x00	; 0
     164:	1d c0       	rjmp	.+58     	; 0x1a0 <Machine_Lcd+0xa2>
     166:	84 30       	cpi	r24, 0x04	; 4
     168:	39 f4       	brne	.+14     	; 0x178 <Machine_Lcd+0x7a>
     16a:	8d e7       	ldi	r24, 0x7D	; 125
     16c:	91 e0       	ldi	r25, 0x01	; 1
     16e:	61 e0       	ldi	r22, 0x01	; 1
     170:	41 e0       	ldi	r20, 0x01	; 1
     172:	2b e8       	ldi	r18, 0x8B	; 139
     174:	30 e0       	ldi	r19, 0x00	; 0
     176:	14 c0       	rjmp	.+40     	; 0x1a0 <Machine_Lcd+0xa2>
     178:	85 30       	cpi	r24, 0x05	; 5
     17a:	39 f4       	brne	.+14     	; 0x18a <Machine_Lcd+0x8c>
     17c:	8d e7       	ldi	r24, 0x7D	; 125
     17e:	91 e0       	ldi	r25, 0x01	; 1
     180:	61 e0       	ldi	r22, 0x01	; 1
     182:	41 e0       	ldi	r20, 0x01	; 1
     184:	20 e9       	ldi	r18, 0x90	; 144
     186:	30 e0       	ldi	r19, 0x00	; 0
     188:	0b c0       	rjmp	.+22     	; 0x1a0 <Machine_Lcd+0xa2>
     18a:	8d e7       	ldi	r24, 0x7D	; 125
     18c:	91 e0       	ldi	r25, 0x01	; 1
     18e:	0e 94 ab 09 	call	0x1356	; 0x1356 <lcd_4bit_clear>
     192:	8d e7       	ldi	r24, 0x7D	; 125
     194:	91 e0       	ldi	r25, 0x01	; 1
     196:	61 e0       	ldi	r22, 0x01	; 1
     198:	41 e0       	ldi	r20, 0x01	; 1
     19a:	25 e9       	ldi	r18, 0x95	; 149
     19c:	30 e0       	ldi	r19, 0x00	; 0
     19e:	30 e0       	ldi	r19, 0x00	; 0
     1a0:	0e 94 eb 09 	call	0x13d6	; 0x13d6 <lcd_4bit_send_string_pos>
     1a4:	81 e0       	ldi	r24, 0x01	; 1
     1a6:	08 95       	ret

000001a8 <Alarm_Error>:
     1a8:	80 91 2f 01 	lds	r24, 0x012F
     1ac:	88 23       	and	r24, r24
     1ae:	49 f4       	brne	.+18     	; 0x1c2 <Alarm_Error+0x1a>
     1b0:	8d e6       	ldi	r24, 0x6D	; 109
     1b2:	91 e0       	ldi	r25, 0x01	; 1
     1b4:	61 e0       	ldi	r22, 0x01	; 1
     1b6:	0e 94 9f 05 	call	0xb3e	; 0xb3e <gpio_pin_write_logic>
     1ba:	8b e6       	ldi	r24, 0x6B	; 107
     1bc:	91 e0       	ldi	r25, 0x01	; 1
     1be:	61 e0       	ldi	r22, 0x01	; 1
     1c0:	08 c0       	rjmp	.+16     	; 0x1d2 <Alarm_Error+0x2a>
     1c2:	8d e6       	ldi	r24, 0x6D	; 109
     1c4:	91 e0       	ldi	r25, 0x01	; 1
     1c6:	60 e0       	ldi	r22, 0x00	; 0
     1c8:	0e 94 9f 05 	call	0xb3e	; 0xb3e <gpio_pin_write_logic>
     1cc:	8b e6       	ldi	r24, 0x6B	; 107
     1ce:	91 e0       	ldi	r25, 0x01	; 1
     1d0:	60 e0       	ldi	r22, 0x00	; 0
     1d2:	0e 94 9f 05 	call	0xb3e	; 0xb3e <gpio_pin_write_logic>
     1d6:	81 e0       	ldi	r24, 0x01	; 1
     1d8:	08 95       	ret

000001da <Machine_Manual_Process>:
     1da:	1f 93       	push	r17
     1dc:	df 93       	push	r29
     1de:	cf 93       	push	r28
     1e0:	00 d0       	rcall	.+0      	; 0x1e2 <Machine_Manual_Process+0x8>
     1e2:	00 d0       	rcall	.+0      	; 0x1e4 <Machine_Manual_Process+0xa>
     1e4:	00 d0       	rcall	.+0      	; 0x1e6 <Machine_Manual_Process+0xc>
     1e6:	cd b7       	in	r28, 0x3d	; 61
     1e8:	de b7       	in	r29, 0x3e	; 62
     1ea:	0e 94 4b 00 	call	0x96	; 0x96 <Machine_Select_Mode>
     1ee:	10 91 2e 01 	lds	r17, 0x012E
     1f2:	11 30       	cpi	r17, 0x01	; 1
     1f4:	09 f0       	breq	.+2      	; 0x1f8 <Machine_Manual_Process+0x1e>
     1f6:	e8 c0       	rjmp	.+464    	; 0x3c8 <Machine_Manual_Process+0x1ee>
     1f8:	19 83       	std	Y+1, r17	; 0x01
     1fa:	1a 83       	std	Y+2, r17	; 0x02
     1fc:	1b 83       	std	Y+3, r17	; 0x03
     1fe:	1c 83       	std	Y+4, r17	; 0x04
     200:	1d 83       	std	Y+5, r17	; 0x05
     202:	1e 83       	std	Y+6, r17	; 0x06
     204:	82 e4       	ldi	r24, 0x42	; 66
     206:	91 e0       	ldi	r25, 0x01	; 1
     208:	be 01       	movw	r22, r28
     20a:	6f 5f       	subi	r22, 0xFF	; 255
     20c:	7f 4f       	sbci	r23, 0xFF	; 255
     20e:	0e 94 60 0b 	call	0x16c0	; 0x16c0 <button_read_state>
     212:	86 e4       	ldi	r24, 0x46	; 70
     214:	91 e0       	ldi	r25, 0x01	; 1
     216:	be 01       	movw	r22, r28
     218:	6e 5f       	subi	r22, 0xFE	; 254
     21a:	7f 4f       	sbci	r23, 0xFF	; 255
     21c:	0e 94 60 0b 	call	0x16c0	; 0x16c0 <button_read_state>
     220:	8a e4       	ldi	r24, 0x4A	; 74
     222:	91 e0       	ldi	r25, 0x01	; 1
     224:	be 01       	movw	r22, r28
     226:	6d 5f       	subi	r22, 0xFD	; 253
     228:	7f 4f       	sbci	r23, 0xFF	; 255
     22a:	0e 94 60 0b 	call	0x16c0	; 0x16c0 <button_read_state>
     22e:	8e e4       	ldi	r24, 0x4E	; 78
     230:	91 e0       	ldi	r25, 0x01	; 1
     232:	be 01       	movw	r22, r28
     234:	6c 5f       	subi	r22, 0xFC	; 252
     236:	7f 4f       	sbci	r23, 0xFF	; 255
     238:	0e 94 60 0b 	call	0x16c0	; 0x16c0 <button_read_state>
     23c:	82 e5       	ldi	r24, 0x52	; 82
     23e:	91 e0       	ldi	r25, 0x01	; 1
     240:	be 01       	movw	r22, r28
     242:	6b 5f       	subi	r22, 0xFB	; 251
     244:	7f 4f       	sbci	r23, 0xFF	; 255
     246:	0e 94 60 0b 	call	0x16c0	; 0x16c0 <button_read_state>
     24a:	86 e5       	ldi	r24, 0x56	; 86
     24c:	91 e0       	ldi	r25, 0x01	; 1
     24e:	be 01       	movw	r22, r28
     250:	6a 5f       	subi	r22, 0xFA	; 250
     252:	7f 4f       	sbci	r23, 0xFF	; 255
     254:	0e 94 60 0b 	call	0x16c0	; 0x16c0 <button_read_state>
     258:	89 81       	ldd	r24, Y+1	; 0x01
     25a:	88 23       	and	r24, r24
     25c:	21 f4       	brne	.+8      	; 0x266 <Machine_Manual_Process+0x8c>
     25e:	10 92 2d 01 	sts	0x012D, r1
     262:	1a 83       	std	Y+2, r17	; 0x02
     264:	06 c0       	rjmp	.+12     	; 0x272 <Machine_Manual_Process+0x98>
     266:	8a 81       	ldd	r24, Y+2	; 0x02
     268:	88 23       	and	r24, r24
     26a:	39 f4       	brne	.+14     	; 0x27a <Machine_Manual_Process+0xa0>
     26c:	10 93 2d 01 	sts	0x012D, r17
     270:	19 83       	std	Y+1, r17	; 0x01
     272:	1b 83       	std	Y+3, r17	; 0x03
     274:	1c 83       	std	Y+4, r17	; 0x04
     276:	1d 83       	std	Y+5, r17	; 0x05
     278:	22 c0       	rjmp	.+68     	; 0x2be <Machine_Manual_Process+0xe4>
     27a:	8b 81       	ldd	r24, Y+3	; 0x03
     27c:	88 23       	and	r24, r24
     27e:	31 f4       	brne	.+12     	; 0x28c <Machine_Manual_Process+0xb2>
     280:	83 e0       	ldi	r24, 0x03	; 3
     282:	80 93 2d 01 	sts	0x012D, r24
     286:	19 83       	std	Y+1, r17	; 0x01
     288:	1a 83       	std	Y+2, r17	; 0x02
     28a:	f4 cf       	rjmp	.-24     	; 0x274 <Machine_Manual_Process+0x9a>
     28c:	8c 81       	ldd	r24, Y+4	; 0x04
     28e:	88 23       	and	r24, r24
     290:	39 f4       	brne	.+14     	; 0x2a0 <Machine_Manual_Process+0xc6>
     292:	84 e0       	ldi	r24, 0x04	; 4
     294:	80 93 2d 01 	sts	0x012D, r24
     298:	19 83       	std	Y+1, r17	; 0x01
     29a:	1a 83       	std	Y+2, r17	; 0x02
     29c:	1b 83       	std	Y+3, r17	; 0x03
     29e:	eb cf       	rjmp	.-42     	; 0x276 <Machine_Manual_Process+0x9c>
     2a0:	8d 81       	ldd	r24, Y+5	; 0x05
     2a2:	88 23       	and	r24, r24
     2a4:	11 f4       	brne	.+4      	; 0x2aa <Machine_Manual_Process+0xd0>
     2a6:	82 e0       	ldi	r24, 0x02	; 2
     2a8:	04 c0       	rjmp	.+8      	; 0x2b2 <Machine_Manual_Process+0xd8>
     2aa:	8e 81       	ldd	r24, Y+6	; 0x06
     2ac:	88 23       	and	r24, r24
     2ae:	39 f4       	brne	.+14     	; 0x2be <Machine_Manual_Process+0xe4>
     2b0:	85 e0       	ldi	r24, 0x05	; 5
     2b2:	80 93 2d 01 	sts	0x012D, r24
     2b6:	19 83       	std	Y+1, r17	; 0x01
     2b8:	1a 83       	std	Y+2, r17	; 0x02
     2ba:	1b 83       	std	Y+3, r17	; 0x03
     2bc:	1c 83       	std	Y+4, r17	; 0x04
     2be:	10 91 2d 01 	lds	r17, 0x012D
     2c2:	11 23       	and	r17, r17
     2c4:	99 f4       	brne	.+38     	; 0x2ec <Machine_Manual_Process+0x112>
     2c6:	11 e0       	ldi	r17, 0x01	; 1
     2c8:	1e 83       	std	Y+6, r17	; 0x06
     2ca:	82 e4       	ldi	r24, 0x42	; 66
     2cc:	91 e0       	ldi	r25, 0x01	; 1
     2ce:	be 01       	movw	r22, r28
     2d0:	6a 5f       	subi	r22, 0xFA	; 250
     2d2:	7f 4f       	sbci	r23, 0xFF	; 255
     2d4:	0e 94 60 0b 	call	0x16c0	; 0x16c0 <button_read_state>
     2d8:	8e 81       	ldd	r24, Y+6	; 0x06
     2da:	88 23       	and	r24, r24
     2dc:	19 f4       	brne	.+6      	; 0x2e4 <Machine_Manual_Process+0x10a>
     2de:	8a e5       	ldi	r24, 0x5A	; 90
     2e0:	91 e0       	ldi	r25, 0x01	; 1
     2e2:	67 c0       	rjmp	.+206    	; 0x3b2 <Machine_Manual_Process+0x1d8>
     2e4:	1e 83       	std	Y+6, r17	; 0x06
     2e6:	8a e5       	ldi	r24, 0x5A	; 90
     2e8:	91 e0       	ldi	r25, 0x01	; 1
     2ea:	68 c0       	rjmp	.+208    	; 0x3bc <Machine_Manual_Process+0x1e2>
     2ec:	11 30       	cpi	r17, 0x01	; 1
     2ee:	91 f4       	brne	.+36     	; 0x314 <Machine_Manual_Process+0x13a>
     2f0:	1e 83       	std	Y+6, r17	; 0x06
     2f2:	86 e4       	ldi	r24, 0x46	; 70
     2f4:	91 e0       	ldi	r25, 0x01	; 1
     2f6:	be 01       	movw	r22, r28
     2f8:	6a 5f       	subi	r22, 0xFA	; 250
     2fa:	7f 4f       	sbci	r23, 0xFF	; 255
     2fc:	0e 94 60 0b 	call	0x16c0	; 0x16c0 <button_read_state>
     300:	8e 81       	ldd	r24, Y+6	; 0x06
     302:	88 23       	and	r24, r24
     304:	19 f4       	brne	.+6      	; 0x30c <Machine_Manual_Process+0x132>
     306:	8c e5       	ldi	r24, 0x5C	; 92
     308:	91 e0       	ldi	r25, 0x01	; 1
     30a:	53 c0       	rjmp	.+166    	; 0x3b2 <Machine_Manual_Process+0x1d8>
     30c:	1e 83       	std	Y+6, r17	; 0x06
     30e:	8c e5       	ldi	r24, 0x5C	; 92
     310:	91 e0       	ldi	r25, 0x01	; 1
     312:	54 c0       	rjmp	.+168    	; 0x3bc <Machine_Manual_Process+0x1e2>
     314:	12 30       	cpi	r17, 0x02	; 2
     316:	99 f4       	brne	.+38     	; 0x33e <Machine_Manual_Process+0x164>
     318:	11 e0       	ldi	r17, 0x01	; 1
     31a:	1e 83       	std	Y+6, r17	; 0x06
     31c:	82 e5       	ldi	r24, 0x52	; 82
     31e:	91 e0       	ldi	r25, 0x01	; 1
     320:	be 01       	movw	r22, r28
     322:	6a 5f       	subi	r22, 0xFA	; 250
     324:	7f 4f       	sbci	r23, 0xFF	; 255
     326:	0e 94 60 0b 	call	0x16c0	; 0x16c0 <button_read_state>
     32a:	8e 81       	ldd	r24, Y+6	; 0x06
     32c:	88 23       	and	r24, r24
     32e:	19 f4       	brne	.+6      	; 0x336 <Machine_Manual_Process+0x15c>
     330:	86 e6       	ldi	r24, 0x66	; 102
     332:	91 e0       	ldi	r25, 0x01	; 1
     334:	3e c0       	rjmp	.+124    	; 0x3b2 <Machine_Manual_Process+0x1d8>
     336:	1e 83       	std	Y+6, r17	; 0x06
     338:	86 e6       	ldi	r24, 0x66	; 102
     33a:	91 e0       	ldi	r25, 0x01	; 1
     33c:	3f c0       	rjmp	.+126    	; 0x3bc <Machine_Manual_Process+0x1e2>
     33e:	13 30       	cpi	r17, 0x03	; 3
     340:	99 f4       	brne	.+38     	; 0x368 <Machine_Manual_Process+0x18e>
     342:	11 e0       	ldi	r17, 0x01	; 1
     344:	1e 83       	std	Y+6, r17	; 0x06
     346:	8a e4       	ldi	r24, 0x4A	; 74
     348:	91 e0       	ldi	r25, 0x01	; 1
     34a:	be 01       	movw	r22, r28
     34c:	6a 5f       	subi	r22, 0xFA	; 250
     34e:	7f 4f       	sbci	r23, 0xFF	; 255
     350:	0e 94 60 0b 	call	0x16c0	; 0x16c0 <button_read_state>
     354:	8e 81       	ldd	r24, Y+6	; 0x06
     356:	88 23       	and	r24, r24
     358:	19 f4       	brne	.+6      	; 0x360 <Machine_Manual_Process+0x186>
     35a:	8e e5       	ldi	r24, 0x5E	; 94
     35c:	91 e0       	ldi	r25, 0x01	; 1
     35e:	29 c0       	rjmp	.+82     	; 0x3b2 <Machine_Manual_Process+0x1d8>
     360:	1e 83       	std	Y+6, r17	; 0x06
     362:	8e e5       	ldi	r24, 0x5E	; 94
     364:	91 e0       	ldi	r25, 0x01	; 1
     366:	2a c0       	rjmp	.+84     	; 0x3bc <Machine_Manual_Process+0x1e2>
     368:	14 30       	cpi	r17, 0x04	; 4
     36a:	99 f4       	brne	.+38     	; 0x392 <Machine_Manual_Process+0x1b8>
     36c:	11 e0       	ldi	r17, 0x01	; 1
     36e:	1e 83       	std	Y+6, r17	; 0x06
     370:	8e e4       	ldi	r24, 0x4E	; 78
     372:	91 e0       	ldi	r25, 0x01	; 1
     374:	be 01       	movw	r22, r28
     376:	6a 5f       	subi	r22, 0xFA	; 250
     378:	7f 4f       	sbci	r23, 0xFF	; 255
     37a:	0e 94 60 0b 	call	0x16c0	; 0x16c0 <button_read_state>
     37e:	8e 81       	ldd	r24, Y+6	; 0x06
     380:	88 23       	and	r24, r24
     382:	19 f4       	brne	.+6      	; 0x38a <Machine_Manual_Process+0x1b0>
     384:	81 e6       	ldi	r24, 0x61	; 97
     386:	91 e0       	ldi	r25, 0x01	; 1
     388:	14 c0       	rjmp	.+40     	; 0x3b2 <Machine_Manual_Process+0x1d8>
     38a:	1e 83       	std	Y+6, r17	; 0x06
     38c:	81 e6       	ldi	r24, 0x61	; 97
     38e:	91 e0       	ldi	r25, 0x01	; 1
     390:	15 c0       	rjmp	.+42     	; 0x3bc <Machine_Manual_Process+0x1e2>
     392:	15 30       	cpi	r17, 0x05	; 5
     394:	b9 f4       	brne	.+46     	; 0x3c4 <Machine_Manual_Process+0x1ea>
     396:	11 e0       	ldi	r17, 0x01	; 1
     398:	1e 83       	std	Y+6, r17	; 0x06
     39a:	86 e5       	ldi	r24, 0x56	; 86
     39c:	91 e0       	ldi	r25, 0x01	; 1
     39e:	be 01       	movw	r22, r28
     3a0:	6a 5f       	subi	r22, 0xFA	; 250
     3a2:	7f 4f       	sbci	r23, 0xFF	; 255
     3a4:	0e 94 60 0b 	call	0x16c0	; 0x16c0 <button_read_state>
     3a8:	8e 81       	ldd	r24, Y+6	; 0x06
     3aa:	88 23       	and	r24, r24
     3ac:	21 f4       	brne	.+8      	; 0x3b6 <Machine_Manual_Process+0x1dc>
     3ae:	89 e6       	ldi	r24, 0x69	; 105
     3b0:	91 e0       	ldi	r25, 0x01	; 1
     3b2:	61 e0       	ldi	r22, 0x01	; 1
     3b4:	04 c0       	rjmp	.+8      	; 0x3be <Machine_Manual_Process+0x1e4>
     3b6:	1e 83       	std	Y+6, r17	; 0x06
     3b8:	89 e6       	ldi	r24, 0x69	; 105
     3ba:	91 e0       	ldi	r25, 0x01	; 1
     3bc:	60 e0       	ldi	r22, 0x00	; 0
     3be:	0e 94 9f 05 	call	0xb3e	; 0xb3e <gpio_pin_write_logic>
     3c2:	02 c0       	rjmp	.+4      	; 0x3c8 <Machine_Manual_Process+0x1ee>
     3c4:	10 92 2f 01 	sts	0x012F, r1
     3c8:	81 e0       	ldi	r24, 0x01	; 1
     3ca:	26 96       	adiw	r28, 0x06	; 6
     3cc:	0f b6       	in	r0, 0x3f	; 63
     3ce:	f8 94       	cli
     3d0:	de bf       	out	0x3e, r29	; 62
     3d2:	0f be       	out	0x3f, r0	; 63
     3d4:	cd bf       	out	0x3d, r28	; 61
     3d6:	cf 91       	pop	r28
     3d8:	df 91       	pop	r29
     3da:	1f 91       	pop	r17
     3dc:	08 95       	ret

000003de <slect_auto_stat>:
     3de:	80 91 34 01 	lds	r24, 0x0134
     3e2:	88 23       	and	r24, r24
     3e4:	31 f4       	brne	.+12     	; 0x3f2 <slect_auto_stat+0x14>
     3e6:	81 e0       	ldi	r24, 0x01	; 1
     3e8:	80 93 ed 01 	sts	0x01ED, r24
     3ec:	80 93 34 01 	sts	0x0134, r24
     3f0:	24 c0       	rjmp	.+72     	; 0x43a <slect_auto_stat+0x5c>
     3f2:	80 91 35 01 	lds	r24, 0x0135
     3f6:	88 23       	and	r24, r24
     3f8:	39 f4       	brne	.+14     	; 0x408 <slect_auto_stat+0x2a>
     3fa:	83 e0       	ldi	r24, 0x03	; 3
     3fc:	80 93 ed 01 	sts	0x01ED, r24
     400:	81 e0       	ldi	r24, 0x01	; 1
     402:	80 93 35 01 	sts	0x0135, r24
     406:	19 c0       	rjmp	.+50     	; 0x43a <slect_auto_stat+0x5c>
     408:	80 91 37 01 	lds	r24, 0x0137
     40c:	88 23       	and	r24, r24
     40e:	29 f4       	brne	.+10     	; 0x41a <slect_auto_stat+0x3c>
     410:	82 e0       	ldi	r24, 0x02	; 2
     412:	80 93 ed 01 	sts	0x01ED, r24
     416:	81 e0       	ldi	r24, 0x01	; 1
     418:	0e c0       	rjmp	.+28     	; 0x436 <slect_auto_stat+0x58>
     41a:	80 91 36 01 	lds	r24, 0x0136
     41e:	88 23       	and	r24, r24
     420:	61 f4       	brne	.+24     	; 0x43a <slect_auto_stat+0x5c>
     422:	84 e0       	ldi	r24, 0x04	; 4
     424:	80 93 ed 01 	sts	0x01ED, r24
     428:	81 e0       	ldi	r24, 0x01	; 1
     42a:	80 93 34 01 	sts	0x0134, r24
     42e:	80 93 35 01 	sts	0x0135, r24
     432:	80 93 36 01 	sts	0x0136, r24
     436:	80 93 37 01 	sts	0x0137, r24
     43a:	80 91 ed 01 	lds	r24, 0x01ED
     43e:	08 95       	ret

00000440 <Print_Time>:
     440:	ef 92       	push	r14
     442:	ff 92       	push	r15
     444:	0f 93       	push	r16
     446:	1f 93       	push	r17
     448:	f6 2e       	mov	r15, r22
     44a:	14 2f       	mov	r17, r20
     44c:	e2 2e       	mov	r14, r18
     44e:	00 23       	and	r16, r16
     450:	89 f4       	brne	.+34     	; 0x474 <__stack+0x15>
     452:	4d 5f       	subi	r20, 0xFD	; 253
     454:	8d e7       	ldi	r24, 0x7D	; 125
     456:	91 e0       	ldi	r25, 0x01	; 1
     458:	25 ea       	ldi	r18, 0xA5	; 165
     45a:	30 e0       	ldi	r19, 0x00	; 0
     45c:	0e 94 eb 09 	call	0x13d6	; 0x13d6 <lcd_4bit_send_string_pos>
     460:	ee 20       	and	r14, r14
     462:	41 f4       	brne	.+16     	; 0x474 <__stack+0x15>
     464:	8d e7       	ldi	r24, 0x7D	; 125
     466:	91 e0       	ldi	r25, 0x01	; 1
     468:	6f 2d       	mov	r22, r15
     46a:	41 2f       	mov	r20, r17
     46c:	28 ea       	ldi	r18, 0xA8	; 168
     46e:	30 e0       	ldi	r19, 0x00	; 0
     470:	0e 94 eb 09 	call	0x13d6	; 0x13d6 <lcd_4bit_send_string_pos>
     474:	80 91 eb 01 	lds	r24, 0x01EB
     478:	80 17       	cp	r24, r16
     47a:	79 f0       	breq	.+30     	; 0x49a <__stack+0x3b>
     47c:	0a 30       	cpi	r16, 0x0A	; 10
     47e:	18 f4       	brcc	.+6      	; 0x486 <__stack+0x27>
     480:	41 2f       	mov	r20, r17
     482:	4c 5f       	subi	r20, 0xFC	; 252
     484:	02 c0       	rjmp	.+4      	; 0x48a <__stack+0x2b>
     486:	41 2f       	mov	r20, r17
     488:	4d 5f       	subi	r20, 0xFD	; 253
     48a:	8d e7       	ldi	r24, 0x7D	; 125
     48c:	91 e0       	ldi	r25, 0x01	; 1
     48e:	6f 2d       	mov	r22, r15
     490:	20 2f       	mov	r18, r16
     492:	0e 94 04 0a 	call	0x1408	; 0x1408 <lcd_4bit_send_num_pos>
     496:	00 93 eb 01 	sts	0x01EB, r16
     49a:	80 91 38 01 	lds	r24, 0x0138
     49e:	8e 15       	cp	r24, r14
     4a0:	69 f0       	breq	.+26     	; 0x4bc <__stack+0x5d>
     4a2:	89 e0       	ldi	r24, 0x09	; 9
     4a4:	8e 15       	cp	r24, r14
     4a6:	08 f0       	brcs	.+2      	; 0x4aa <__stack+0x4b>
     4a8:	1f 5f       	subi	r17, 0xFF	; 255
     4aa:	8d e7       	ldi	r24, 0x7D	; 125
     4ac:	91 e0       	ldi	r25, 0x01	; 1
     4ae:	6f 2d       	mov	r22, r15
     4b0:	41 2f       	mov	r20, r17
     4b2:	2e 2d       	mov	r18, r14
     4b4:	0e 94 04 0a 	call	0x1408	; 0x1408 <lcd_4bit_send_num_pos>
     4b8:	e0 92 38 01 	sts	0x0138, r14
     4bc:	81 e0       	ldi	r24, 0x01	; 1
     4be:	1f 91       	pop	r17
     4c0:	0f 91       	pop	r16
     4c2:	ff 90       	pop	r15
     4c4:	ef 90       	pop	r14
     4c6:	08 95       	ret

000004c8 <water_function>:
     4c8:	8f e6       	ldi	r24, 0x6F	; 111
     4ca:	91 e0       	ldi	r25, 0x01	; 1
     4cc:	60 e3       	ldi	r22, 0x30	; 48
     4ce:	71 e0       	ldi	r23, 0x01	; 1
     4d0:	0e 94 c9 05 	call	0xb92	; 0xb92 <gpio_pin_read>
     4d4:	80 91 30 01 	lds	r24, 0x0130
     4d8:	88 23       	and	r24, r24
     4da:	39 f4       	brne	.+14     	; 0x4ea <water_function+0x22>
     4dc:	8a e5       	ldi	r24, 0x5A	; 90
     4de:	91 e0       	ldi	r25, 0x01	; 1
     4e0:	61 e0       	ldi	r22, 0x01	; 1
     4e2:	0e 94 9f 05 	call	0xb3e	; 0xb3e <gpio_pin_write_logic>
     4e6:	81 e0       	ldi	r24, 0x01	; 1
     4e8:	08 95       	ret
     4ea:	8a e5       	ldi	r24, 0x5A	; 90
     4ec:	91 e0       	ldi	r25, 0x01	; 1
     4ee:	60 e0       	ldi	r22, 0x00	; 0
     4f0:	0e 94 9f 05 	call	0xb3e	; 0xb3e <gpio_pin_write_logic>
     4f4:	80 e0       	ldi	r24, 0x00	; 0
     4f6:	08 95       	ret

000004f8 <rinse_motor_function>:
     4f8:	8e e5       	ldi	r24, 0x5E	; 94
     4fa:	91 e0       	ldi	r25, 0x01	; 1
     4fc:	0e 94 3e 08 	call	0x107c	; 0x107c <Motor_Run>
     500:	0e 94 77 03 	call	0x6ee	; 0x6ee <Timer0_Start>
     504:	87 e0       	ldi	r24, 0x07	; 7
     506:	92 e0       	ldi	r25, 0x02	; 2
     508:	62 e0       	ldi	r22, 0x02	; 2
     50a:	72 e0       	ldi	r23, 0x02	; 2
     50c:	0e 94 c0 03 	call	0x780	; 0x780 <Timer0_Calculate_Min_And_Sec>
     510:	80 91 02 02 	lds	r24, 0x0202
     514:	88 23       	and	r24, r24
     516:	11 f4       	brne	.+4      	; 0x51c <rinse_motor_function+0x24>
     518:	81 e0       	ldi	r24, 0x01	; 1
     51a:	08 95       	ret
     51c:	8e e5       	ldi	r24, 0x5E	; 94
     51e:	91 e0       	ldi	r25, 0x01	; 1
     520:	0e 94 39 08 	call	0x1072	; 0x1072 <Motor_Stop>
     524:	0e 94 84 03 	call	0x708	; 0x708 <Timer0_Stop>
     528:	10 92 02 02 	sts	0x0202, r1
     52c:	10 92 07 02 	sts	0x0207, r1
     530:	10 92 31 01 	sts	0x0131, r1
     534:	80 e0       	ldi	r24, 0x00	; 0
     536:	08 95       	ret

00000538 <Machine_Rinse>:
     538:	0e 94 64 02 	call	0x4c8	; 0x4c8 <water_function>
     53c:	88 23       	and	r24, r24
     53e:	81 f4       	brne	.+32     	; 0x560 <Machine_Rinse+0x28>
     540:	0e 94 7c 02 	call	0x4f8	; 0x4f8 <rinse_motor_function>
     544:	88 23       	and	r24, r24
     546:	61 f4       	brne	.+24     	; 0x560 <Machine_Rinse+0x28>
     548:	8a e5       	ldi	r24, 0x5A	; 90
     54a:	91 e0       	ldi	r25, 0x01	; 1
     54c:	61 e0       	ldi	r22, 0x01	; 1
     54e:	0e 94 9f 05 	call	0xb3e	; 0xb3e <gpio_pin_write_logic>
     552:	8a e5       	ldi	r24, 0x5A	; 90
     554:	91 e0       	ldi	r25, 0x01	; 1
     556:	60 e0       	ldi	r22, 0x00	; 0
     558:	0e 94 9f 05 	call	0xb3e	; 0xb3e <gpio_pin_write_logic>
     55c:	80 e0       	ldi	r24, 0x00	; 0
     55e:	08 95       	ret
     560:	81 e0       	ldi	r24, 0x01	; 1
     562:	08 95       	ret

00000564 <Machine_Washing>:
     564:	0e 94 64 02 	call	0x4c8	; 0x4c8 <water_function>
     568:	80 93 3a 01 	sts	0x013A, r24
     56c:	80 91 32 01 	lds	r24, 0x0132
     570:	81 30       	cpi	r24, 0x01	; 1
     572:	f1 f4       	brne	.+60     	; 0x5b0 <Machine_Washing+0x4c>
     574:	8e e5       	ldi	r24, 0x5E	; 94
     576:	91 e0       	ldi	r25, 0x01	; 1
     578:	0e 94 3e 08 	call	0x107c	; 0x107c <Motor_Run>
     57c:	0e 94 77 03 	call	0x6ee	; 0x6ee <Timer0_Start>
     580:	84 e0       	ldi	r24, 0x04	; 4
     582:	92 e0       	ldi	r25, 0x02	; 2
     584:	65 e0       	ldi	r22, 0x05	; 5
     586:	72 e0       	ldi	r23, 0x02	; 2
     588:	0e 94 c0 03 	call	0x780	; 0x780 <Timer0_Calculate_Min_And_Sec>
     58c:	80 91 05 02 	lds	r24, 0x0205
     590:	88 23       	and	r24, r24
     592:	71 f0       	breq	.+28     	; 0x5b0 <Machine_Washing+0x4c>
     594:	8e e5       	ldi	r24, 0x5E	; 94
     596:	91 e0       	ldi	r25, 0x01	; 1
     598:	0e 94 39 08 	call	0x1072	; 0x1072 <Motor_Stop>
     59c:	0e 94 84 03 	call	0x708	; 0x708 <Timer0_Stop>
     5a0:	10 92 05 02 	sts	0x0205, r1
     5a4:	10 92 04 02 	sts	0x0204, r1
     5a8:	10 92 32 01 	sts	0x0132, r1
     5ac:	80 e0       	ldi	r24, 0x00	; 0
     5ae:	01 c0       	rjmp	.+2      	; 0x5b2 <Machine_Washing+0x4e>
     5b0:	81 e0       	ldi	r24, 0x01	; 1
     5b2:	80 93 39 01 	sts	0x0139, r24
     5b6:	8a e5       	ldi	r24, 0x5A	; 90
     5b8:	91 e0       	ldi	r25, 0x01	; 1
     5ba:	61 e0       	ldi	r22, 0x01	; 1
     5bc:	0e 94 9f 05 	call	0xb3e	; 0xb3e <gpio_pin_write_logic>
     5c0:	8a e5       	ldi	r24, 0x5A	; 90
     5c2:	91 e0       	ldi	r25, 0x01	; 1
     5c4:	60 e0       	ldi	r22, 0x00	; 0
     5c6:	0e 94 9f 05 	call	0xb3e	; 0xb3e <gpio_pin_write_logic>
     5ca:	10 92 ec 01 	sts	0x01EC, r1
     5ce:	80 91 3a 01 	lds	r24, 0x013A
     5d2:	88 23       	and	r24, r24
     5d4:	11 f0       	breq	.+4      	; 0x5da <Machine_Washing+0x76>
     5d6:	81 e0       	ldi	r24, 0x01	; 1
     5d8:	08 95       	ret
     5da:	80 91 39 01 	lds	r24, 0x0139
     5de:	81 11       	cpse	r24, r1
     5e0:	81 e0       	ldi	r24, 0x01	; 1
     5e2:	08 95       	ret

000005e4 <Machine_Auto_Process>:
     5e4:	83 e7       	ldi	r24, 0x73	; 115
     5e6:	91 e0       	ldi	r25, 0x01	; 1
     5e8:	6b e3       	ldi	r22, 0x3B	; 59
     5ea:	71 e0       	ldi	r23, 0x01	; 1
     5ec:	0e 94 60 0b 	call	0x16c0	; 0x16c0 <button_read_state>
     5f0:	80 91 3b 01 	lds	r24, 0x013B
     5f4:	88 23       	and	r24, r24
     5f6:	09 f0       	breq	.+2      	; 0x5fa <Machine_Auto_Process+0x16>
     5f8:	4d c0       	rjmp	.+154    	; 0x694 <Machine_Auto_Process+0xb0>
     5fa:	80 91 ea 01 	lds	r24, 0x01EA
     5fe:	81 30       	cpi	r24, 0x01	; 1
     600:	81 f0       	breq	.+32     	; 0x622 <Machine_Auto_Process+0x3e>
     602:	81 30       	cpi	r24, 0x01	; 1
     604:	30 f0       	brcs	.+12     	; 0x612 <Machine_Auto_Process+0x2e>
     606:	82 30       	cpi	r24, 0x02	; 2
     608:	e1 f0       	breq	.+56     	; 0x642 <Machine_Auto_Process+0x5e>
     60a:	83 30       	cpi	r24, 0x03	; 3
     60c:	09 f0       	breq	.+2      	; 0x610 <Machine_Auto_Process+0x2c>
     60e:	42 c0       	rjmp	.+132    	; 0x694 <Machine_Auto_Process+0xb0>
     610:	10 c0       	rjmp	.+32     	; 0x632 <Machine_Auto_Process+0x4e>
     612:	0e 94 9c 02 	call	0x538	; 0x538 <Machine_Rinse>
     616:	80 93 34 01 	sts	0x0134, r24
     61a:	88 23       	and	r24, r24
     61c:	d9 f5       	brne	.+118    	; 0x694 <Machine_Auto_Process+0xb0>
     61e:	81 e0       	ldi	r24, 0x01	; 1
     620:	37 c0       	rjmp	.+110    	; 0x690 <Machine_Auto_Process+0xac>
     622:	0e 94 b2 02 	call	0x564	; 0x564 <Machine_Washing>
     626:	80 93 35 01 	sts	0x0135, r24
     62a:	88 23       	and	r24, r24
     62c:	99 f5       	brne	.+102    	; 0x694 <Machine_Auto_Process+0xb0>
     62e:	83 e0       	ldi	r24, 0x03	; 3
     630:	2f c0       	rjmp	.+94     	; 0x690 <Machine_Auto_Process+0xac>
     632:	0e 94 9c 02 	call	0x538	; 0x538 <Machine_Rinse>
     636:	80 93 37 01 	sts	0x0137, r24
     63a:	88 23       	and	r24, r24
     63c:	59 f5       	brne	.+86     	; 0x694 <Machine_Auto_Process+0xb0>
     63e:	82 e0       	ldi	r24, 0x02	; 2
     640:	27 c0       	rjmp	.+78     	; 0x690 <Machine_Auto_Process+0xac>
     642:	84 e6       	ldi	r24, 0x64	; 100
     644:	91 e0       	ldi	r25, 0x01	; 1
     646:	61 e0       	ldi	r22, 0x01	; 1
     648:	0e 94 9f 05 	call	0xb3e	; 0xb3e <gpio_pin_write_logic>
     64c:	86 e6       	ldi	r24, 0x66	; 102
     64e:	91 e0       	ldi	r25, 0x01	; 1
     650:	0e 94 3e 08 	call	0x107c	; 0x107c <Motor_Run>
     654:	0e 94 77 03 	call	0x6ee	; 0x6ee <Timer0_Start>
     658:	86 e0       	ldi	r24, 0x06	; 6
     65a:	92 e0       	ldi	r25, 0x02	; 2
     65c:	63 e0       	ldi	r22, 0x03	; 3
     65e:	72 e0       	ldi	r23, 0x02	; 2
     660:	0e 94 c0 03 	call	0x780	; 0x780 <Timer0_Calculate_Min_And_Sec>
     664:	80 91 03 02 	lds	r24, 0x0203
     668:	88 23       	and	r24, r24
     66a:	11 f4       	brne	.+4      	; 0x670 <Machine_Auto_Process+0x8c>
     66c:	81 e0       	ldi	r24, 0x01	; 1
     66e:	0b c0       	rjmp	.+22     	; 0x686 <Machine_Auto_Process+0xa2>
     670:	86 e6       	ldi	r24, 0x66	; 102
     672:	91 e0       	ldi	r25, 0x01	; 1
     674:	0e 94 39 08 	call	0x1072	; 0x1072 <Motor_Stop>
     678:	0e 94 84 03 	call	0x708	; 0x708 <Timer0_Stop>
     67c:	10 92 03 02 	sts	0x0203, r1
     680:	10 92 06 02 	sts	0x0206, r1
     684:	80 e0       	ldi	r24, 0x00	; 0
     686:	80 93 36 01 	sts	0x0136, r24
     68a:	88 23       	and	r24, r24
     68c:	19 f4       	brne	.+6      	; 0x694 <Machine_Auto_Process+0xb0>
     68e:	84 e0       	ldi	r24, 0x04	; 4
     690:	80 93 ea 01 	sts	0x01EA, r24
     694:	81 e0       	ldi	r24, 0x01	; 1
     696:	08 95       	ret

00000698 <Timer1_Init>:
     698:	8f b7       	in	r24, 0x3f	; 63
     69a:	80 68       	ori	r24, 0x80	; 128
     69c:	8f bf       	out	0x3f, r24	; 63
     69e:	80 e8       	ldi	r24, 0x80	; 128
     6a0:	8f bd       	out	0x2f, r24	; 47
     6a2:	88 e0       	ldi	r24, 0x08	; 8
     6a4:	8e bd       	out	0x2e, r24	; 46
     6a6:	84 ef       	ldi	r24, 0xF4	; 244
     6a8:	8d bd       	out	0x2d, r24	; 45
     6aa:	83 e2       	ldi	r24, 0x23	; 35
     6ac:	8a bd       	out	0x2a, r24	; 42
     6ae:	89 b7       	in	r24, 0x39	; 57
     6b0:	80 61       	ori	r24, 0x10	; 16
     6b2:	89 bf       	out	0x39, r24	; 57
     6b4:	81 e0       	ldi	r24, 0x01	; 1
     6b6:	08 95       	ret

000006b8 <Timer1_Start>:
     6b8:	81 e0       	ldi	r24, 0x01	; 1
     6ba:	08 95       	ret

000006bc <Timer1_Stop>:
     6bc:	81 e0       	ldi	r24, 0x01	; 1
     6be:	08 95       	ret

000006c0 <Timer0_Check_Available>:
     6c0:	80 91 f3 01 	lds	r24, 0x01F3
     6c4:	81 11       	cpse	r24, r1
     6c6:	81 e0       	ldi	r24, 0x01	; 1
     6c8:	08 95       	ret

000006ca <Timer0_Init>:
     6ca:	8f b7       	in	r24, 0x3f	; 63
     6cc:	80 68       	ori	r24, 0x80	; 128
     6ce:	8f bf       	out	0x3f, r24	; 63
     6d0:	83 b7       	in	r24, 0x33	; 51
     6d2:	81 60       	ori	r24, 0x01	; 1
     6d4:	83 bf       	out	0x33, r24	; 51
     6d6:	83 b7       	in	r24, 0x33	; 51
     6d8:	8d 7f       	andi	r24, 0xFD	; 253
     6da:	83 bf       	out	0x33, r24	; 51
     6dc:	83 b7       	in	r24, 0x33	; 51
     6de:	84 60       	ori	r24, 0x04	; 4
     6e0:	83 bf       	out	0x33, r24	; 51
     6e2:	89 b7       	in	r24, 0x39	; 57
     6e4:	81 60       	ori	r24, 0x01	; 1
     6e6:	89 bf       	out	0x39, r24	; 57
     6e8:	86 e0       	ldi	r24, 0x06	; 6
     6ea:	82 bf       	out	0x32, r24	; 50
     6ec:	08 95       	ret

000006ee <Timer0_Start>:
     6ee:	83 b7       	in	r24, 0x33	; 51
     6f0:	81 60       	ori	r24, 0x01	; 1
     6f2:	83 bf       	out	0x33, r24	; 51
     6f4:	83 b7       	in	r24, 0x33	; 51
     6f6:	8d 7f       	andi	r24, 0xFD	; 253
     6f8:	83 bf       	out	0x33, r24	; 51
     6fa:	83 b7       	in	r24, 0x33	; 51
     6fc:	84 60       	ori	r24, 0x04	; 4
     6fe:	83 bf       	out	0x33, r24	; 51
     700:	81 e0       	ldi	r24, 0x01	; 1
     702:	80 93 f3 01 	sts	0x01F3, r24
     706:	08 95       	ret

00000708 <Timer0_Stop>:
     708:	83 b7       	in	r24, 0x33	; 51
     70a:	8e 7f       	andi	r24, 0xFE	; 254
     70c:	83 bf       	out	0x33, r24	; 51
     70e:	83 b7       	in	r24, 0x33	; 51
     710:	8d 7f       	andi	r24, 0xFD	; 253
     712:	83 bf       	out	0x33, r24	; 51
     714:	83 b7       	in	r24, 0x33	; 51
     716:	8b 7f       	andi	r24, 0xFB	; 251
     718:	83 bf       	out	0x33, r24	; 51
     71a:	10 92 f3 01 	sts	0x01F3, r1
     71e:	10 92 f0 01 	sts	0x01F0, r1
     722:	10 92 f1 01 	sts	0x01F1, r1
     726:	10 92 f2 01 	sts	0x01F2, r1
     72a:	81 e0       	ldi	r24, 0x01	; 1
     72c:	08 95       	ret

0000072e <Timer0_Reset>:
     72e:	10 92 f0 01 	sts	0x01F0, r1
     732:	10 92 f1 01 	sts	0x01F1, r1
     736:	10 92 f2 01 	sts	0x01F2, r1
     73a:	08 95       	ret

0000073c <Timer0_Calculate_Sec>:
     73c:	fc 01       	movw	r30, r24
     73e:	80 91 f0 01 	lds	r24, 0x01F0
     742:	8e 31       	cpi	r24, 0x1E	; 30
     744:	70 f0       	brcs	.+28     	; 0x762 <Timer0_Calculate_Sec+0x26>
     746:	80 91 f1 01 	lds	r24, 0x01F1
     74a:	8f 5f       	subi	r24, 0xFF	; 255
     74c:	80 93 f1 01 	sts	0x01F1, r24
     750:	80 83       	st	Z, r24
     752:	10 92 f0 01 	sts	0x01F0, r1
     756:	80 91 f1 01 	lds	r24, 0x01F1
     75a:	8c 33       	cpi	r24, 0x3C	; 60
     75c:	10 f0       	brcs	.+4      	; 0x762 <Timer0_Calculate_Sec+0x26>
     75e:	10 92 f1 01 	sts	0x01F1, r1
     762:	08 95       	ret

00000764 <Timer0_Calculate_Min>:
     764:	fc 01       	movw	r30, r24
     766:	90 91 f2 01 	lds	r25, 0x01F2
     76a:	90 83       	st	Z, r25
     76c:	80 91 f1 01 	lds	r24, 0x01F1
     770:	8b 33       	cpi	r24, 0x3B	; 59
     772:	28 f0       	brcs	.+10     	; 0x77e <Timer0_Calculate_Min+0x1a>
     774:	9f 5f       	subi	r25, 0xFF	; 255
     776:	90 93 f2 01 	sts	0x01F2, r25
     77a:	10 92 f1 01 	sts	0x01F1, r1
     77e:	08 95       	ret

00000780 <Timer0_Calculate_Min_And_Sec>:
     780:	0f 93       	push	r16
     782:	1f 93       	push	r17
     784:	cf 93       	push	r28
     786:	df 93       	push	r29
     788:	8c 01       	movw	r16, r24
     78a:	eb 01       	movw	r28, r22
     78c:	81 ef       	ldi	r24, 0xF1	; 241
     78e:	91 e0       	ldi	r25, 0x01	; 1
     790:	0e 94 9e 03 	call	0x73c	; 0x73c <Timer0_Calculate_Sec>
     794:	90 91 f2 01 	lds	r25, 0x01F2
     798:	80 91 f1 01 	lds	r24, 0x01F1
     79c:	8b 33       	cpi	r24, 0x3B	; 59
     79e:	28 f0       	brcs	.+10     	; 0x7aa <Timer0_Calculate_Min_And_Sec+0x2a>
     7a0:	9f 5f       	subi	r25, 0xFF	; 255
     7a2:	90 93 f2 01 	sts	0x01F2, r25
     7a6:	10 92 f1 01 	sts	0x01F1, r1
     7aa:	90 91 f2 01 	lds	r25, 0x01F2
     7ae:	98 83       	st	Y, r25
     7b0:	80 91 f1 01 	lds	r24, 0x01F1
     7b4:	f8 01       	movw	r30, r16
     7b6:	80 83       	st	Z, r24
     7b8:	9c 33       	cpi	r25, 0x3C	; 60
     7ba:	10 f0       	brcs	.+4      	; 0x7c0 <Timer0_Calculate_Min_And_Sec+0x40>
     7bc:	10 92 f2 01 	sts	0x01F2, r1
     7c0:	df 91       	pop	r29
     7c2:	cf 91       	pop	r28
     7c4:	1f 91       	pop	r17
     7c6:	0f 91       	pop	r16
     7c8:	08 95       	ret

000007ca <__vector_11>:
     7ca:	1f 92       	push	r1
     7cc:	0f 92       	push	r0
     7ce:	0f b6       	in	r0, 0x3f	; 63
     7d0:	0f 92       	push	r0
     7d2:	11 24       	eor	r1, r1
     7d4:	8f 93       	push	r24
     7d6:	80 91 f0 01 	lds	r24, 0x01F0
     7da:	8f 5f       	subi	r24, 0xFF	; 255
     7dc:	80 93 f0 01 	sts	0x01F0, r24
     7e0:	86 e0       	ldi	r24, 0x06	; 6
     7e2:	82 bf       	out	0x32, r24	; 50
     7e4:	88 b7       	in	r24, 0x38	; 56
     7e6:	81 60       	ori	r24, 0x01	; 1
     7e8:	88 bf       	out	0x38, r24	; 56
     7ea:	8f 91       	pop	r24
     7ec:	0f 90       	pop	r0
     7ee:	0f be       	out	0x3f, r0	; 63
     7f0:	0f 90       	pop	r0
     7f2:	1f 90       	pop	r1
     7f4:	18 95       	reti

000007f6 <Interrupt_External_Dinit>:
     7f6:	20 e0       	ldi	r18, 0x00	; 0
     7f8:	89 2b       	or	r24, r25
     7fa:	09 f4       	brne	.+2      	; 0x7fe <Interrupt_External_Dinit+0x8>
     7fc:	21 e0       	ldi	r18, 0x01	; 1
     7fe:	82 2f       	mov	r24, r18
     800:	08 95       	ret

00000802 <Interrupt_Global_Enable>:
     802:	8f b7       	in	r24, 0x3f	; 63
     804:	80 68       	ori	r24, 0x80	; 128
     806:	8f bf       	out	0x3f, r24	; 63
     808:	80 e0       	ldi	r24, 0x00	; 0
     80a:	08 95       	ret

0000080c <Interrupt_Global_Disable>:
     80c:	8f b7       	in	r24, 0x3f	; 63
     80e:	80 68       	ori	r24, 0x80	; 128
     810:	8f bf       	out	0x3f, r24	; 63
     812:	80 e0       	ldi	r24, 0x00	; 0
     814:	08 95       	ret

00000816 <__vector_1>:
     816:	1f 92       	push	r1
     818:	0f 92       	push	r0
     81a:	0f b6       	in	r0, 0x3f	; 63
     81c:	0f 92       	push	r0
     81e:	11 24       	eor	r1, r1
     820:	2f 93       	push	r18
     822:	3f 93       	push	r19
     824:	4f 93       	push	r20
     826:	5f 93       	push	r21
     828:	6f 93       	push	r22
     82a:	7f 93       	push	r23
     82c:	8f 93       	push	r24
     82e:	9f 93       	push	r25
     830:	af 93       	push	r26
     832:	bf 93       	push	r27
     834:	ef 93       	push	r30
     836:	ff 93       	push	r31
     838:	e0 91 f4 01 	lds	r30, 0x01F4
     83c:	f0 91 f5 01 	lds	r31, 0x01F5
     840:	09 95       	icall
     842:	8a b7       	in	r24, 0x3a	; 58
     844:	80 64       	ori	r24, 0x40	; 64
     846:	8a bf       	out	0x3a, r24	; 58
     848:	ff 91       	pop	r31
     84a:	ef 91       	pop	r30
     84c:	bf 91       	pop	r27
     84e:	af 91       	pop	r26
     850:	9f 91       	pop	r25
     852:	8f 91       	pop	r24
     854:	7f 91       	pop	r23
     856:	6f 91       	pop	r22
     858:	5f 91       	pop	r21
     85a:	4f 91       	pop	r20
     85c:	3f 91       	pop	r19
     85e:	2f 91       	pop	r18
     860:	0f 90       	pop	r0
     862:	0f be       	out	0x3f, r0	; 63
     864:	0f 90       	pop	r0
     866:	1f 90       	pop	r1
     868:	18 95       	reti

0000086a <__vector_2>:
     86a:	1f 92       	push	r1
     86c:	0f 92       	push	r0
     86e:	0f b6       	in	r0, 0x3f	; 63
     870:	0f 92       	push	r0
     872:	11 24       	eor	r1, r1
     874:	2f 93       	push	r18
     876:	3f 93       	push	r19
     878:	4f 93       	push	r20
     87a:	5f 93       	push	r21
     87c:	6f 93       	push	r22
     87e:	7f 93       	push	r23
     880:	8f 93       	push	r24
     882:	9f 93       	push	r25
     884:	af 93       	push	r26
     886:	bf 93       	push	r27
     888:	ef 93       	push	r30
     88a:	ff 93       	push	r31
     88c:	e0 91 f6 01 	lds	r30, 0x01F6
     890:	f0 91 f7 01 	lds	r31, 0x01F7
     894:	09 95       	icall
     896:	8a b7       	in	r24, 0x3a	; 58
     898:	80 68       	ori	r24, 0x80	; 128
     89a:	8a bf       	out	0x3a, r24	; 58
     89c:	ff 91       	pop	r31
     89e:	ef 91       	pop	r30
     8a0:	bf 91       	pop	r27
     8a2:	af 91       	pop	r26
     8a4:	9f 91       	pop	r25
     8a6:	8f 91       	pop	r24
     8a8:	7f 91       	pop	r23
     8aa:	6f 91       	pop	r22
     8ac:	5f 91       	pop	r21
     8ae:	4f 91       	pop	r20
     8b0:	3f 91       	pop	r19
     8b2:	2f 91       	pop	r18
     8b4:	0f 90       	pop	r0
     8b6:	0f be       	out	0x3f, r0	; 63
     8b8:	0f 90       	pop	r0
     8ba:	1f 90       	pop	r1
     8bc:	18 95       	reti

000008be <__vector_3>:
     8be:	1f 92       	push	r1
     8c0:	0f 92       	push	r0
     8c2:	0f b6       	in	r0, 0x3f	; 63
     8c4:	0f 92       	push	r0
     8c6:	11 24       	eor	r1, r1
     8c8:	2f 93       	push	r18
     8ca:	3f 93       	push	r19
     8cc:	4f 93       	push	r20
     8ce:	5f 93       	push	r21
     8d0:	6f 93       	push	r22
     8d2:	7f 93       	push	r23
     8d4:	8f 93       	push	r24
     8d6:	9f 93       	push	r25
     8d8:	af 93       	push	r26
     8da:	bf 93       	push	r27
     8dc:	ef 93       	push	r30
     8de:	ff 93       	push	r31
     8e0:	e0 91 f8 01 	lds	r30, 0x01F8
     8e4:	f0 91 f9 01 	lds	r31, 0x01F9
     8e8:	09 95       	icall
     8ea:	8a b7       	in	r24, 0x3a	; 58
     8ec:	80 62       	ori	r24, 0x20	; 32
     8ee:	8a bf       	out	0x3a, r24	; 58
     8f0:	ff 91       	pop	r31
     8f2:	ef 91       	pop	r30
     8f4:	bf 91       	pop	r27
     8f6:	af 91       	pop	r26
     8f8:	9f 91       	pop	r25
     8fa:	8f 91       	pop	r24
     8fc:	7f 91       	pop	r23
     8fe:	6f 91       	pop	r22
     900:	5f 91       	pop	r21
     902:	4f 91       	pop	r20
     904:	3f 91       	pop	r19
     906:	2f 91       	pop	r18
     908:	0f 90       	pop	r0
     90a:	0f be       	out	0x3f, r0	; 63
     90c:	0f 90       	pop	r0
     90e:	1f 90       	pop	r1
     910:	18 95       	reti

00000912 <Interrupt_External_Init>:
     912:	0f 93       	push	r16
     914:	1f 93       	push	r17
     916:	df 93       	push	r29
     918:	cf 93       	push	r28
     91a:	00 d0       	rcall	.+0      	; 0x91c <Interrupt_External_Init+0xa>
     91c:	00 d0       	rcall	.+0      	; 0x91e <Interrupt_External_Init+0xc>
     91e:	00 d0       	rcall	.+0      	; 0x920 <Interrupt_External_Init+0xe>
     920:	cd b7       	in	r28, 0x3d	; 61
     922:	de b7       	in	r29, 0x3e	; 62
     924:	8c 01       	movw	r16, r24
     926:	00 97       	sbiw	r24, 0x00	; 0
     928:	11 f4       	brne	.+4      	; 0x92e <Interrupt_External_Init+0x1c>
     92a:	81 e0       	ldi	r24, 0x01	; 1
     92c:	b7 c0       	rjmp	.+366    	; 0xa9c <Interrupt_External_Init+0x18a>
     92e:	fc 01       	movw	r30, r24
     930:	22 81       	ldd	r18, Z+2	; 0x02
     932:	21 30       	cpi	r18, 0x01	; 1
     934:	49 f0       	breq	.+18     	; 0x948 <Interrupt_External_Init+0x36>
     936:	21 30       	cpi	r18, 0x01	; 1
     938:	18 f0       	brcs	.+6      	; 0x940 <Interrupt_External_Init+0x2e>
     93a:	22 30       	cpi	r18, 0x02	; 2
     93c:	69 f4       	brne	.+26     	; 0x958 <Interrupt_External_Init+0x46>
     93e:	08 c0       	rjmp	.+16     	; 0x950 <Interrupt_External_Init+0x3e>
     940:	8b b7       	in	r24, 0x3b	; 59
     942:	80 64       	ori	r24, 0x40	; 64
     944:	8b bf       	out	0x3b, r24	; 59
     946:	10 c0       	rjmp	.+32     	; 0x968 <Interrupt_External_Init+0x56>
     948:	8b b7       	in	r24, 0x3b	; 59
     94a:	80 68       	ori	r24, 0x80	; 128
     94c:	8b bf       	out	0x3b, r24	; 59
     94e:	29 c0       	rjmp	.+82     	; 0x9a2 <Interrupt_External_Init+0x90>
     950:	8b b7       	in	r24, 0x3b	; 59
     952:	80 62       	ori	r24, 0x20	; 32
     954:	8b bf       	out	0x3b, r24	; 59
     956:	43 c0       	rjmp	.+134    	; 0x9de <Interrupt_External_Init+0xcc>
     958:	21 30       	cpi	r18, 0x01	; 1
     95a:	19 f1       	breq	.+70     	; 0x9a2 <Interrupt_External_Init+0x90>
     95c:	21 30       	cpi	r18, 0x01	; 1
     95e:	20 f0       	brcs	.+8      	; 0x968 <Interrupt_External_Init+0x56>
     960:	22 30       	cpi	r18, 0x02	; 2
     962:	09 f0       	breq	.+2      	; 0x966 <Interrupt_External_Init+0x54>
     964:	49 c0       	rjmp	.+146    	; 0x9f8 <Interrupt_External_Init+0xe6>
     966:	3b c0       	rjmp	.+118    	; 0x9de <Interrupt_External_Init+0xcc>
     968:	f8 01       	movw	r30, r16
     96a:	83 81       	ldd	r24, Z+3	; 0x03
     96c:	81 30       	cpi	r24, 0x01	; 1
     96e:	51 f0       	breq	.+20     	; 0x984 <Interrupt_External_Init+0x72>
     970:	81 30       	cpi	r24, 0x01	; 1
     972:	28 f0       	brcs	.+10     	; 0x97e <Interrupt_External_Init+0x6c>
     974:	82 30       	cpi	r24, 0x02	; 2
     976:	61 f0       	breq	.+24     	; 0x990 <Interrupt_External_Init+0x7e>
     978:	83 30       	cpi	r24, 0x03	; 3
     97a:	f1 f5       	brne	.+124    	; 0x9f8 <Interrupt_External_Init+0xe6>
     97c:	0c c0       	rjmp	.+24     	; 0x996 <Interrupt_External_Init+0x84>
     97e:	85 b7       	in	r24, 0x35	; 53
     980:	8e 7f       	andi	r24, 0xFE	; 254
     982:	02 c0       	rjmp	.+4      	; 0x988 <Interrupt_External_Init+0x76>
     984:	85 b7       	in	r24, 0x35	; 53
     986:	81 60       	ori	r24, 0x01	; 1
     988:	85 bf       	out	0x35, r24	; 53
     98a:	85 b7       	in	r24, 0x35	; 53
     98c:	82 60       	ori	r24, 0x02	; 2
     98e:	25 c0       	rjmp	.+74     	; 0x9da <Interrupt_External_Init+0xc8>
     990:	85 b7       	in	r24, 0x35	; 53
     992:	81 60       	ori	r24, 0x01	; 1
     994:	02 c0       	rjmp	.+4      	; 0x99a <Interrupt_External_Init+0x88>
     996:	85 b7       	in	r24, 0x35	; 53
     998:	8e 7f       	andi	r24, 0xFE	; 254
     99a:	85 bf       	out	0x35, r24	; 53
     99c:	85 b7       	in	r24, 0x35	; 53
     99e:	8d 7f       	andi	r24, 0xFD	; 253
     9a0:	1c c0       	rjmp	.+56     	; 0x9da <Interrupt_External_Init+0xc8>
     9a2:	f8 01       	movw	r30, r16
     9a4:	83 81       	ldd	r24, Z+3	; 0x03
     9a6:	81 30       	cpi	r24, 0x01	; 1
     9a8:	51 f0       	breq	.+20     	; 0x9be <Interrupt_External_Init+0xac>
     9aa:	81 30       	cpi	r24, 0x01	; 1
     9ac:	28 f0       	brcs	.+10     	; 0x9b8 <Interrupt_External_Init+0xa6>
     9ae:	82 30       	cpi	r24, 0x02	; 2
     9b0:	61 f0       	breq	.+24     	; 0x9ca <Interrupt_External_Init+0xb8>
     9b2:	83 30       	cpi	r24, 0x03	; 3
     9b4:	09 f5       	brne	.+66     	; 0x9f8 <Interrupt_External_Init+0xe6>
     9b6:	0c c0       	rjmp	.+24     	; 0x9d0 <Interrupt_External_Init+0xbe>
     9b8:	85 b7       	in	r24, 0x35	; 53
     9ba:	8b 7f       	andi	r24, 0xFB	; 251
     9bc:	02 c0       	rjmp	.+4      	; 0x9c2 <Interrupt_External_Init+0xb0>
     9be:	85 b7       	in	r24, 0x35	; 53
     9c0:	84 60       	ori	r24, 0x04	; 4
     9c2:	85 bf       	out	0x35, r24	; 53
     9c4:	85 b7       	in	r24, 0x35	; 53
     9c6:	88 60       	ori	r24, 0x08	; 8
     9c8:	08 c0       	rjmp	.+16     	; 0x9da <Interrupt_External_Init+0xc8>
     9ca:	85 b7       	in	r24, 0x35	; 53
     9cc:	84 60       	ori	r24, 0x04	; 4
     9ce:	02 c0       	rjmp	.+4      	; 0x9d4 <Interrupt_External_Init+0xc2>
     9d0:	85 b7       	in	r24, 0x35	; 53
     9d2:	8b 7f       	andi	r24, 0xFB	; 251
     9d4:	85 bf       	out	0x35, r24	; 53
     9d6:	85 b7       	in	r24, 0x35	; 53
     9d8:	87 7f       	andi	r24, 0xF7	; 247
     9da:	85 bf       	out	0x35, r24	; 53
     9dc:	0d c0       	rjmp	.+26     	; 0x9f8 <Interrupt_External_Init+0xe6>
     9de:	f8 01       	movw	r30, r16
     9e0:	83 81       	ldd	r24, Z+3	; 0x03
     9e2:	88 23       	and	r24, r24
     9e4:	19 f0       	breq	.+6      	; 0x9ec <Interrupt_External_Init+0xda>
     9e6:	81 30       	cpi	r24, 0x01	; 1
     9e8:	39 f4       	brne	.+14     	; 0x9f8 <Interrupt_External_Init+0xe6>
     9ea:	03 c0       	rjmp	.+6      	; 0x9f2 <Interrupt_External_Init+0xe0>
     9ec:	84 b7       	in	r24, 0x34	; 52
     9ee:	8f 7b       	andi	r24, 0xBF	; 191
     9f0:	02 c0       	rjmp	.+4      	; 0x9f6 <Interrupt_External_Init+0xe4>
     9f2:	84 b7       	in	r24, 0x34	; 52
     9f4:	80 64       	ori	r24, 0x40	; 64
     9f6:	84 bf       	out	0x34, r24	; 52
     9f8:	8f b7       	in	r24, 0x3f	; 63
     9fa:	80 68       	ori	r24, 0x80	; 128
     9fc:	8f bf       	out	0x3f, r24	; 63
     9fe:	1a 82       	std	Y+2, r1	; 0x02
     a00:	19 82       	std	Y+1, r1	; 0x01
     a02:	90 e3       	ldi	r25, 0x30	; 48
     a04:	99 83       	std	Y+1, r25	; 0x01
     a06:	8a 81       	ldd	r24, Y+2	; 0x02
     a08:	88 7f       	andi	r24, 0xF8	; 248
     a0a:	8a 60       	ori	r24, 0x0A	; 10
     a0c:	8a 83       	std	Y+2, r24	; 0x02
     a0e:	1c 82       	std	Y+4, r1	; 0x04
     a10:	1b 82       	std	Y+3, r1	; 0x03
     a12:	9b 83       	std	Y+3, r25	; 0x03
     a14:	8c 81       	ldd	r24, Y+4	; 0x04
     a16:	88 7f       	andi	r24, 0xF8	; 248
     a18:	8b 60       	ori	r24, 0x0B	; 11
     a1a:	8c 83       	std	Y+4, r24	; 0x04
     a1c:	1e 82       	std	Y+6, r1	; 0x06
     a1e:	1d 82       	std	Y+5, r1	; 0x05
     a20:	86 e3       	ldi	r24, 0x36	; 54
     a22:	8d 83       	std	Y+5, r24	; 0x05
     a24:	8e 81       	ldd	r24, Y+6	; 0x06
     a26:	88 7f       	andi	r24, 0xF8	; 248
     a28:	8b 60       	ori	r24, 0x0B	; 11
     a2a:	8e 83       	std	Y+6, r24	; 0x06
     a2c:	21 30       	cpi	r18, 0x01	; 1
     a2e:	41 f0       	breq	.+16     	; 0xa40 <Interrupt_External_Init+0x12e>
     a30:	21 30       	cpi	r18, 0x01	; 1
     a32:	18 f0       	brcs	.+6      	; 0xa3a <Interrupt_External_Init+0x128>
     a34:	22 30       	cpi	r18, 0x02	; 2
     a36:	59 f4       	brne	.+22     	; 0xa4e <Interrupt_External_Init+0x13c>
     a38:	06 c0       	rjmp	.+12     	; 0xa46 <Interrupt_External_Init+0x134>
     a3a:	ce 01       	movw	r24, r28
     a3c:	01 96       	adiw	r24, 0x01	; 1
     a3e:	05 c0       	rjmp	.+10     	; 0xa4a <Interrupt_External_Init+0x138>
     a40:	ce 01       	movw	r24, r28
     a42:	03 96       	adiw	r24, 0x03	; 3
     a44:	02 c0       	rjmp	.+4      	; 0xa4a <Interrupt_External_Init+0x138>
     a46:	ce 01       	movw	r24, r28
     a48:	05 96       	adiw	r24, 0x05	; 5
     a4a:	0e 94 fc 05 	call	0xbf8	; 0xbf8 <gpio_pin_initialize>
     a4e:	f8 01       	movw	r30, r16
     a50:	82 81       	ldd	r24, Z+2	; 0x02
     a52:	81 30       	cpi	r24, 0x01	; 1
     a54:	79 f0       	breq	.+30     	; 0xa74 <Interrupt_External_Init+0x162>
     a56:	81 30       	cpi	r24, 0x01	; 1
     a58:	18 f0       	brcs	.+6      	; 0xa60 <Interrupt_External_Init+0x14e>
     a5a:	82 30       	cpi	r24, 0x02	; 2
     a5c:	f1 f4       	brne	.+60     	; 0xa9a <Interrupt_External_Init+0x188>
     a5e:	14 c0       	rjmp	.+40     	; 0xa88 <Interrupt_External_Init+0x176>
     a60:	f8 01       	movw	r30, r16
     a62:	80 81       	ld	r24, Z
     a64:	91 81       	ldd	r25, Z+1	; 0x01
     a66:	00 97       	sbiw	r24, 0x00	; 0
     a68:	c1 f0       	breq	.+48     	; 0xa9a <Interrupt_External_Init+0x188>
     a6a:	90 93 f5 01 	sts	0x01F5, r25
     a6e:	80 93 f4 01 	sts	0x01F4, r24
     a72:	13 c0       	rjmp	.+38     	; 0xa9a <Interrupt_External_Init+0x188>
     a74:	f8 01       	movw	r30, r16
     a76:	80 81       	ld	r24, Z
     a78:	91 81       	ldd	r25, Z+1	; 0x01
     a7a:	00 97       	sbiw	r24, 0x00	; 0
     a7c:	71 f0       	breq	.+28     	; 0xa9a <Interrupt_External_Init+0x188>
     a7e:	90 93 f7 01 	sts	0x01F7, r25
     a82:	80 93 f6 01 	sts	0x01F6, r24
     a86:	09 c0       	rjmp	.+18     	; 0xa9a <Interrupt_External_Init+0x188>
     a88:	f8 01       	movw	r30, r16
     a8a:	80 81       	ld	r24, Z
     a8c:	91 81       	ldd	r25, Z+1	; 0x01
     a8e:	00 97       	sbiw	r24, 0x00	; 0
     a90:	21 f0       	breq	.+8      	; 0xa9a <Interrupt_External_Init+0x188>
     a92:	90 93 f9 01 	sts	0x01F9, r25
     a96:	80 93 f8 01 	sts	0x01F8, r24
     a9a:	80 e0       	ldi	r24, 0x00	; 0
     a9c:	26 96       	adiw	r28, 0x06	; 6
     a9e:	0f b6       	in	r0, 0x3f	; 63
     aa0:	f8 94       	cli
     aa2:	de bf       	out	0x3e, r29	; 62
     aa4:	0f be       	out	0x3f, r0	; 63
     aa6:	cd bf       	out	0x3d, r28	; 61
     aa8:	cf 91       	pop	r28
     aaa:	df 91       	pop	r29
     aac:	1f 91       	pop	r17
     aae:	0f 91       	pop	r16
     ab0:	08 95       	ret

00000ab2 <gpio_pin_direction_initialize>:
     ab2:	dc 01       	movw	r26, r24
     ab4:	00 97       	sbiw	r24, 0x00	; 0
     ab6:	21 f1       	breq	.+72     	; 0xb00 <gpio_pin_direction_initialize+0x4e>
     ab8:	66 23       	and	r22, r22
     aba:	19 f0       	breq	.+6      	; 0xac2 <gpio_pin_direction_initialize+0x10>
     abc:	61 30       	cpi	r22, 0x01	; 1
     abe:	01 f5       	brne	.+64     	; 0xb00 <gpio_pin_direction_initialize+0x4e>
     ac0:	0f c0       	rjmp	.+30     	; 0xae0 <gpio_pin_direction_initialize+0x2e>
     ac2:	ec 91       	ld	r30, X
     ac4:	f0 e0       	ldi	r31, 0x00	; 0
     ac6:	31 81       	ldd	r19, Z+1	; 0x01
     ac8:	11 96       	adiw	r26, 0x01	; 1
     aca:	2c 91       	ld	r18, X
     acc:	27 70       	andi	r18, 0x07	; 7
     ace:	81 e0       	ldi	r24, 0x01	; 1
     ad0:	90 e0       	ldi	r25, 0x00	; 0
     ad2:	02 c0       	rjmp	.+4      	; 0xad8 <gpio_pin_direction_initialize+0x26>
     ad4:	88 0f       	add	r24, r24
     ad6:	99 1f       	adc	r25, r25
     ad8:	2a 95       	dec	r18
     ada:	e2 f7       	brpl	.-8      	; 0xad4 <gpio_pin_direction_initialize+0x22>
     adc:	38 2b       	or	r19, r24
     ade:	0f c0       	rjmp	.+30     	; 0xafe <gpio_pin_direction_initialize+0x4c>
     ae0:	ec 91       	ld	r30, X
     ae2:	f0 e0       	ldi	r31, 0x00	; 0
     ae4:	31 81       	ldd	r19, Z+1	; 0x01
     ae6:	11 96       	adiw	r26, 0x01	; 1
     ae8:	2c 91       	ld	r18, X
     aea:	27 70       	andi	r18, 0x07	; 7
     aec:	81 e0       	ldi	r24, 0x01	; 1
     aee:	90 e0       	ldi	r25, 0x00	; 0
     af0:	02 c0       	rjmp	.+4      	; 0xaf6 <gpio_pin_direction_initialize+0x44>
     af2:	88 0f       	add	r24, r24
     af4:	99 1f       	adc	r25, r25
     af6:	2a 95       	dec	r18
     af8:	e2 f7       	brpl	.-8      	; 0xaf2 <gpio_pin_direction_initialize+0x40>
     afa:	80 95       	com	r24
     afc:	38 23       	and	r19, r24
     afe:	31 83       	std	Z+1, r19	; 0x01
     b00:	81 e0       	ldi	r24, 0x01	; 1
     b02:	08 95       	ret

00000b04 <gpio_pin_get_direction_status>:
     b04:	cf 93       	push	r28
     b06:	df 93       	push	r29
     b08:	dc 01       	movw	r26, r24
     b0a:	eb 01       	movw	r28, r22
     b0c:	00 97       	sbiw	r24, 0x00	; 0
     b0e:	99 f0       	breq	.+38     	; 0xb36 <gpio_pin_get_direction_status+0x32>
     b10:	61 15       	cp	r22, r1
     b12:	71 05       	cpc	r23, r1
     b14:	81 f0       	breq	.+32     	; 0xb36 <gpio_pin_get_direction_status+0x32>
     b16:	ec 91       	ld	r30, X
     b18:	f0 e0       	ldi	r31, 0x00	; 0
     b1a:	81 81       	ldd	r24, Z+1	; 0x01
     b1c:	90 e0       	ldi	r25, 0x00	; 0
     b1e:	11 96       	adiw	r26, 0x01	; 1
     b20:	2c 91       	ld	r18, X
     b22:	27 70       	andi	r18, 0x07	; 7
     b24:	02 c0       	rjmp	.+4      	; 0xb2a <gpio_pin_get_direction_status+0x26>
     b26:	95 95       	asr	r25
     b28:	87 95       	ror	r24
     b2a:	2a 95       	dec	r18
     b2c:	e2 f7       	brpl	.-8      	; 0xb26 <gpio_pin_get_direction_status+0x22>
     b2e:	81 70       	andi	r24, 0x01	; 1
     b30:	88 83       	st	Y, r24
     b32:	80 e0       	ldi	r24, 0x00	; 0
     b34:	01 c0       	rjmp	.+2      	; 0xb38 <gpio_pin_get_direction_status+0x34>
     b36:	81 e0       	ldi	r24, 0x01	; 1
     b38:	df 91       	pop	r29
     b3a:	cf 91       	pop	r28
     b3c:	08 95       	ret

00000b3e <gpio_pin_write_logic>:
     b3e:	dc 01       	movw	r26, r24
     b40:	00 97       	sbiw	r24, 0x00	; 0
     b42:	29 f1       	breq	.+74     	; 0xb8e <gpio_pin_write_logic+0x50>
     b44:	66 23       	and	r22, r22
     b46:	89 f0       	breq	.+34     	; 0xb6a <gpio_pin_write_logic+0x2c>
     b48:	61 30       	cpi	r22, 0x01	; 1
     b4a:	09 f5       	brne	.+66     	; 0xb8e <gpio_pin_write_logic+0x50>
     b4c:	ec 91       	ld	r30, X
     b4e:	f0 e0       	ldi	r31, 0x00	; 0
     b50:	32 81       	ldd	r19, Z+2	; 0x02
     b52:	11 96       	adiw	r26, 0x01	; 1
     b54:	2c 91       	ld	r18, X
     b56:	27 70       	andi	r18, 0x07	; 7
     b58:	81 e0       	ldi	r24, 0x01	; 1
     b5a:	90 e0       	ldi	r25, 0x00	; 0
     b5c:	02 c0       	rjmp	.+4      	; 0xb62 <gpio_pin_write_logic+0x24>
     b5e:	88 0f       	add	r24, r24
     b60:	99 1f       	adc	r25, r25
     b62:	2a 95       	dec	r18
     b64:	e2 f7       	brpl	.-8      	; 0xb5e <gpio_pin_write_logic+0x20>
     b66:	38 2b       	or	r19, r24
     b68:	0f c0       	rjmp	.+30     	; 0xb88 <gpio_pin_write_logic+0x4a>
     b6a:	ec 91       	ld	r30, X
     b6c:	f0 e0       	ldi	r31, 0x00	; 0
     b6e:	32 81       	ldd	r19, Z+2	; 0x02
     b70:	11 96       	adiw	r26, 0x01	; 1
     b72:	2c 91       	ld	r18, X
     b74:	27 70       	andi	r18, 0x07	; 7
     b76:	81 e0       	ldi	r24, 0x01	; 1
     b78:	90 e0       	ldi	r25, 0x00	; 0
     b7a:	02 c0       	rjmp	.+4      	; 0xb80 <gpio_pin_write_logic+0x42>
     b7c:	88 0f       	add	r24, r24
     b7e:	99 1f       	adc	r25, r25
     b80:	2a 95       	dec	r18
     b82:	e2 f7       	brpl	.-8      	; 0xb7c <gpio_pin_write_logic+0x3e>
     b84:	80 95       	com	r24
     b86:	38 23       	and	r19, r24
     b88:	32 83       	std	Z+2, r19	; 0x02
     b8a:	80 e0       	ldi	r24, 0x00	; 0
     b8c:	08 95       	ret
     b8e:	81 e0       	ldi	r24, 0x01	; 1
     b90:	08 95       	ret

00000b92 <gpio_pin_read>:
     b92:	cf 93       	push	r28
     b94:	df 93       	push	r29
     b96:	dc 01       	movw	r26, r24
     b98:	eb 01       	movw	r28, r22
     b9a:	00 97       	sbiw	r24, 0x00	; 0
     b9c:	99 f0       	breq	.+38     	; 0xbc4 <gpio_pin_read+0x32>
     b9e:	61 15       	cp	r22, r1
     ba0:	71 05       	cpc	r23, r1
     ba2:	81 f0       	breq	.+32     	; 0xbc4 <gpio_pin_read+0x32>
     ba4:	ec 91       	ld	r30, X
     ba6:	f0 e0       	ldi	r31, 0x00	; 0
     ba8:	80 81       	ld	r24, Z
     baa:	90 e0       	ldi	r25, 0x00	; 0
     bac:	11 96       	adiw	r26, 0x01	; 1
     bae:	2c 91       	ld	r18, X
     bb0:	27 70       	andi	r18, 0x07	; 7
     bb2:	02 c0       	rjmp	.+4      	; 0xbb8 <gpio_pin_read+0x26>
     bb4:	95 95       	asr	r25
     bb6:	87 95       	ror	r24
     bb8:	2a 95       	dec	r18
     bba:	e2 f7       	brpl	.-8      	; 0xbb4 <gpio_pin_read+0x22>
     bbc:	81 70       	andi	r24, 0x01	; 1
     bbe:	88 83       	st	Y, r24
     bc0:	80 e0       	ldi	r24, 0x00	; 0
     bc2:	01 c0       	rjmp	.+2      	; 0xbc6 <gpio_pin_read+0x34>
     bc4:	81 e0       	ldi	r24, 0x01	; 1
     bc6:	df 91       	pop	r29
     bc8:	cf 91       	pop	r28
     bca:	08 95       	ret

00000bcc <gpio_pin_toggle>:
     bcc:	dc 01       	movw	r26, r24
     bce:	00 97       	sbiw	r24, 0x00	; 0
     bd0:	11 f4       	brne	.+4      	; 0xbd6 <gpio_pin_toggle+0xa>
     bd2:	81 e0       	ldi	r24, 0x01	; 1
     bd4:	08 95       	ret
     bd6:	ec 91       	ld	r30, X
     bd8:	f0 e0       	ldi	r31, 0x00	; 0
     bda:	32 81       	ldd	r19, Z+2	; 0x02
     bdc:	11 96       	adiw	r26, 0x01	; 1
     bde:	2c 91       	ld	r18, X
     be0:	27 70       	andi	r18, 0x07	; 7
     be2:	81 e0       	ldi	r24, 0x01	; 1
     be4:	90 e0       	ldi	r25, 0x00	; 0
     be6:	02 c0       	rjmp	.+4      	; 0xbec <gpio_pin_toggle+0x20>
     be8:	88 0f       	add	r24, r24
     bea:	99 1f       	adc	r25, r25
     bec:	2a 95       	dec	r18
     bee:	e2 f7       	brpl	.-8      	; 0xbe8 <gpio_pin_toggle+0x1c>
     bf0:	38 27       	eor	r19, r24
     bf2:	32 83       	std	Z+2, r19	; 0x02
     bf4:	80 e0       	ldi	r24, 0x00	; 0
     bf6:	08 95       	ret

00000bf8 <gpio_pin_initialize>:
     bf8:	cf 93       	push	r28
     bfa:	df 93       	push	r29
     bfc:	ec 01       	movw	r28, r24
     bfe:	00 97       	sbiw	r24, 0x00	; 0
     c00:	11 f4       	brne	.+4      	; 0xc06 <gpio_pin_initialize+0xe>
     c02:	81 e0       	ldi	r24, 0x01	; 1
     c04:	0d c0       	rjmp	.+26     	; 0xc20 <gpio_pin_initialize+0x28>
     c06:	69 81       	ldd	r22, Y+1	; 0x01
     c08:	66 95       	lsr	r22
     c0a:	66 95       	lsr	r22
     c0c:	66 95       	lsr	r22
     c0e:	61 70       	andi	r22, 0x01	; 1
     c10:	0e 94 59 05 	call	0xab2	; 0xab2 <gpio_pin_direction_initialize>
     c14:	69 81       	ldd	r22, Y+1	; 0x01
     c16:	62 95       	swap	r22
     c18:	61 70       	andi	r22, 0x01	; 1
     c1a:	ce 01       	movw	r24, r28
     c1c:	0e 94 9f 05 	call	0xb3e	; 0xb3e <gpio_pin_write_logic>
     c20:	df 91       	pop	r29
     c22:	cf 91       	pop	r28
     c24:	08 95       	ret

00000c26 <gpio_port_direction_initialize>:
     c26:	66 23       	and	r22, r22
     c28:	21 f0       	breq	.+8      	; 0xc32 <gpio_port_direction_initialize+0xc>
     c2a:	61 30       	cpi	r22, 0x01	; 1
     c2c:	41 f0       	breq	.+16     	; 0xc3e <gpio_port_direction_initialize+0x18>
     c2e:	81 e0       	ldi	r24, 0x01	; 1
     c30:	08 95       	ret
     c32:	e8 2f       	mov	r30, r24
     c34:	f0 e0       	ldi	r31, 0x00	; 0
     c36:	8f ef       	ldi	r24, 0xFF	; 255
     c38:	81 83       	std	Z+1, r24	; 0x01
     c3a:	80 e0       	ldi	r24, 0x00	; 0
     c3c:	08 95       	ret
     c3e:	e8 2f       	mov	r30, r24
     c40:	f0 e0       	ldi	r31, 0x00	; 0
     c42:	11 82       	std	Z+1, r1	; 0x01
     c44:	80 e0       	ldi	r24, 0x00	; 0
     c46:	08 95       	ret

00000c48 <gpio_port_get_direction_status>:
     c48:	80 e0       	ldi	r24, 0x00	; 0
     c4a:	08 95       	ret

00000c4c <gpio_port_write_logic>:
     c4c:	89 33       	cpi	r24, 0x39	; 57
     c4e:	41 f0       	breq	.+16     	; 0xc60 <gpio_port_write_logic+0x14>
     c50:	86 33       	cpi	r24, 0x36	; 54
     c52:	31 f0       	breq	.+12     	; 0xc60 <gpio_port_write_logic+0x14>
     c54:	83 33       	cpi	r24, 0x33	; 51
     c56:	21 f0       	breq	.+8      	; 0xc60 <gpio_port_write_logic+0x14>
     c58:	80 33       	cpi	r24, 0x30	; 48
     c5a:	11 f0       	breq	.+4      	; 0xc60 <gpio_port_write_logic+0x14>
     c5c:	81 e0       	ldi	r24, 0x01	; 1
     c5e:	08 95       	ret
     c60:	e8 2f       	mov	r30, r24
     c62:	f0 e0       	ldi	r31, 0x00	; 0
     c64:	62 83       	std	Z+2, r22	; 0x02
     c66:	80 e0       	ldi	r24, 0x00	; 0
     c68:	08 95       	ret

00000c6a <gpio_port_read_logic>:
     c6a:	80 e0       	ldi	r24, 0x00	; 0
     c6c:	08 95       	ret

00000c6e <gpio_port_toggle_logic>:
     c6e:	80 e0       	ldi	r24, 0x00	; 0
     c70:	08 95       	ret

00000c72 <gpio_pin_get_status>:
     c72:	dc 01       	movw	r26, r24
     c74:	ec 91       	ld	r30, X
     c76:	f0 e0       	ldi	r31, 0x00	; 0
     c78:	82 81       	ldd	r24, Z+2	; 0x02
     c7a:	90 e0       	ldi	r25, 0x00	; 0
     c7c:	11 96       	adiw	r26, 0x01	; 1
     c7e:	2c 91       	ld	r18, X
     c80:	27 70       	andi	r18, 0x07	; 7
     c82:	02 c0       	rjmp	.+4      	; 0xc88 <gpio_pin_get_status+0x16>
     c84:	95 95       	asr	r25
     c86:	87 95       	ror	r24
     c88:	2a 95       	dec	r18
     c8a:	e2 f7       	brpl	.-8      	; 0xc84 <gpio_pin_get_status+0x12>
     c8c:	81 70       	andi	r24, 0x01	; 1
     c8e:	08 95       	ret

00000c90 <led_Toggle>:
     c90:	00 97       	sbiw	r24, 0x00	; 0
     c92:	11 f4       	brne	.+4      	; 0xc98 <led_Toggle+0x8>
     c94:	81 e0       	ldi	r24, 0x01	; 1
     c96:	08 95       	ret
     c98:	0e 94 e6 05 	call	0xbcc	; 0xbcc <gpio_pin_toggle>
     c9c:	80 e0       	ldi	r24, 0x00	; 0
     c9e:	08 95       	ret

00000ca0 <led_blinking>:
     ca0:	ef 92       	push	r14
     ca2:	ff 92       	push	r15
     ca4:	1f 93       	push	r17
     ca6:	cf 93       	push	r28
     ca8:	df 93       	push	r29
     caa:	ec 01       	movw	r28, r24
     cac:	00 97       	sbiw	r24, 0x00	; 0
     cae:	11 f4       	brne	.+4      	; 0xcb4 <led_blinking+0x14>
     cb0:	81 e0       	ldi	r24, 0x01	; 1
     cb2:	0f c0       	rjmp	.+30     	; 0xcd2 <led_blinking+0x32>
     cb4:	10 e0       	ldi	r17, 0x00	; 0
     cb6:	84 ed       	ldi	r24, 0xD4	; 212
     cb8:	e8 2e       	mov	r14, r24
     cba:	80 e3       	ldi	r24, 0x30	; 48
     cbc:	f8 2e       	mov	r15, r24
     cbe:	ce 01       	movw	r24, r28
     cc0:	0e 94 e6 05 	call	0xbcc	; 0xbcc <gpio_pin_toggle>
     cc4:	c7 01       	movw	r24, r14
     cc6:	01 97       	sbiw	r24, 0x01	; 1
     cc8:	f1 f7       	brne	.-4      	; 0xcc6 <led_blinking+0x26>
     cca:	1f 5f       	subi	r17, 0xFF	; 255
     ccc:	14 31       	cpi	r17, 0x14	; 20
     cce:	b9 f7       	brne	.-18     	; 0xcbe <led_blinking+0x1e>
     cd0:	80 e0       	ldi	r24, 0x00	; 0
     cd2:	df 91       	pop	r29
     cd4:	cf 91       	pop	r28
     cd6:	1f 91       	pop	r17
     cd8:	ff 90       	pop	r15
     cda:	ef 90       	pop	r14
     cdc:	08 95       	ret

00000cde <led_toggle>:
     cde:	df 93       	push	r29
     ce0:	cf 93       	push	r28
     ce2:	00 d0       	rcall	.+0      	; 0xce4 <led_toggle+0x6>
     ce4:	cd b7       	in	r28, 0x3d	; 61
     ce6:	de b7       	in	r29, 0x3e	; 62
     ce8:	fc 01       	movw	r30, r24
     cea:	20 81       	ld	r18, Z
     cec:	91 81       	ldd	r25, Z+1	; 0x01
     cee:	97 70       	andi	r25, 0x07	; 7
     cf0:	ef 2b       	or	r30, r31
     cf2:	11 f4       	brne	.+4      	; 0xcf8 <led_toggle+0x1a>
     cf4:	81 e0       	ldi	r24, 0x01	; 1
     cf6:	0c c0       	rjmp	.+24     	; 0xd10 <led_toggle+0x32>
     cf8:	1a 82       	std	Y+2, r1	; 0x02
     cfa:	19 82       	std	Y+1, r1	; 0x01
     cfc:	8a 81       	ldd	r24, Y+2	; 0x02
     cfe:	88 7f       	andi	r24, 0xF8	; 248
     d00:	89 2b       	or	r24, r25
     d02:	8a 83       	std	Y+2, r24	; 0x02
     d04:	29 83       	std	Y+1, r18	; 0x01
     d06:	ce 01       	movw	r24, r28
     d08:	01 96       	adiw	r24, 0x01	; 1
     d0a:	0e 94 e6 05 	call	0xbcc	; 0xbcc <gpio_pin_toggle>
     d0e:	80 e0       	ldi	r24, 0x00	; 0
     d10:	0f 90       	pop	r0
     d12:	0f 90       	pop	r0
     d14:	cf 91       	pop	r28
     d16:	df 91       	pop	r29
     d18:	08 95       	ret

00000d1a <led_turn_off>:
     d1a:	df 93       	push	r29
     d1c:	cf 93       	push	r28
     d1e:	00 d0       	rcall	.+0      	; 0xd20 <led_turn_off+0x6>
     d20:	cd b7       	in	r28, 0x3d	; 61
     d22:	de b7       	in	r29, 0x3e	; 62
     d24:	fc 01       	movw	r30, r24
     d26:	20 81       	ld	r18, Z
     d28:	91 81       	ldd	r25, Z+1	; 0x01
     d2a:	97 70       	andi	r25, 0x07	; 7
     d2c:	ef 2b       	or	r30, r31
     d2e:	11 f4       	brne	.+4      	; 0xd34 <led_turn_off+0x1a>
     d30:	81 e0       	ldi	r24, 0x01	; 1
     d32:	0d c0       	rjmp	.+26     	; 0xd4e <led_turn_off+0x34>
     d34:	1a 82       	std	Y+2, r1	; 0x02
     d36:	19 82       	std	Y+1, r1	; 0x01
     d38:	8a 81       	ldd	r24, Y+2	; 0x02
     d3a:	88 7f       	andi	r24, 0xF8	; 248
     d3c:	89 2b       	or	r24, r25
     d3e:	8a 83       	std	Y+2, r24	; 0x02
     d40:	29 83       	std	Y+1, r18	; 0x01
     d42:	ce 01       	movw	r24, r28
     d44:	01 96       	adiw	r24, 0x01	; 1
     d46:	60 e0       	ldi	r22, 0x00	; 0
     d48:	0e 94 9f 05 	call	0xb3e	; 0xb3e <gpio_pin_write_logic>
     d4c:	80 e0       	ldi	r24, 0x00	; 0
     d4e:	0f 90       	pop	r0
     d50:	0f 90       	pop	r0
     d52:	cf 91       	pop	r28
     d54:	df 91       	pop	r29
     d56:	08 95       	ret

00000d58 <led_turn_on>:
     d58:	df 93       	push	r29
     d5a:	cf 93       	push	r28
     d5c:	00 d0       	rcall	.+0      	; 0xd5e <led_turn_on+0x6>
     d5e:	cd b7       	in	r28, 0x3d	; 61
     d60:	de b7       	in	r29, 0x3e	; 62
     d62:	fc 01       	movw	r30, r24
     d64:	20 81       	ld	r18, Z
     d66:	91 81       	ldd	r25, Z+1	; 0x01
     d68:	97 70       	andi	r25, 0x07	; 7
     d6a:	ef 2b       	or	r30, r31
     d6c:	11 f4       	brne	.+4      	; 0xd72 <led_turn_on+0x1a>
     d6e:	81 e0       	ldi	r24, 0x01	; 1
     d70:	0e c0       	rjmp	.+28     	; 0xd8e <led_turn_on+0x36>
     d72:	1a 82       	std	Y+2, r1	; 0x02
     d74:	19 82       	std	Y+1, r1	; 0x01
     d76:	8a 81       	ldd	r24, Y+2	; 0x02
     d78:	80 61       	ori	r24, 0x10	; 16
     d7a:	88 7f       	andi	r24, 0xF8	; 248
     d7c:	89 2b       	or	r24, r25
     d7e:	8a 83       	std	Y+2, r24	; 0x02
     d80:	29 83       	std	Y+1, r18	; 0x01
     d82:	ce 01       	movw	r24, r28
     d84:	01 96       	adiw	r24, 0x01	; 1
     d86:	61 e0       	ldi	r22, 0x01	; 1
     d88:	0e 94 9f 05 	call	0xb3e	; 0xb3e <gpio_pin_write_logic>
     d8c:	80 e0       	ldi	r24, 0x00	; 0
     d8e:	0f 90       	pop	r0
     d90:	0f 90       	pop	r0
     d92:	cf 91       	pop	r28
     d94:	df 91       	pop	r29
     d96:	08 95       	ret

00000d98 <led_inialize>:
     d98:	df 93       	push	r29
     d9a:	cf 93       	push	r28
     d9c:	00 d0       	rcall	.+0      	; 0xd9e <led_inialize+0x6>
     d9e:	cd b7       	in	r28, 0x3d	; 61
     da0:	de b7       	in	r29, 0x3e	; 62
     da2:	fc 01       	movw	r30, r24
     da4:	00 97       	sbiw	r24, 0x00	; 0
     da6:	11 f4       	brne	.+4      	; 0xdac <led_inialize+0x14>
     da8:	81 e0       	ldi	r24, 0x01	; 1
     daa:	11 c0       	rjmp	.+34     	; 0xdce <led_inialize+0x36>
     dac:	21 81       	ldd	r18, Z+1	; 0x01
     dae:	80 81       	ld	r24, Z
     db0:	89 83       	std	Y+1, r24	; 0x01
     db2:	8a 81       	ldd	r24, Y+2	; 0x02
     db4:	80 7e       	andi	r24, 0xE0	; 224
     db6:	92 2f       	mov	r25, r18
     db8:	99 0f       	add	r25, r25
     dba:	90 71       	andi	r25, 0x10	; 16
     dbc:	27 70       	andi	r18, 0x07	; 7
     dbe:	82 2b       	or	r24, r18
     dc0:	89 2b       	or	r24, r25
     dc2:	8a 83       	std	Y+2, r24	; 0x02
     dc4:	ce 01       	movw	r24, r28
     dc6:	01 96       	adiw	r24, 0x01	; 1
     dc8:	0e 94 fc 05 	call	0xbf8	; 0xbf8 <gpio_pin_initialize>
     dcc:	80 e0       	ldi	r24, 0x00	; 0
     dce:	0f 90       	pop	r0
     dd0:	0f 90       	pop	r0
     dd2:	cf 91       	pop	r28
     dd4:	df 91       	pop	r29
     dd6:	08 95       	ret

00000dd8 <Keypad_Scane>:
     dd8:	2f 92       	push	r2
     dda:	3f 92       	push	r3
     ddc:	4f 92       	push	r4
     dde:	5f 92       	push	r5
     de0:	6f 92       	push	r6
     de2:	7f 92       	push	r7
     de4:	8f 92       	push	r8
     de6:	9f 92       	push	r9
     de8:	af 92       	push	r10
     dea:	bf 92       	push	r11
     dec:	cf 92       	push	r12
     dee:	df 92       	push	r13
     df0:	ef 92       	push	r14
     df2:	ff 92       	push	r15
     df4:	0f 93       	push	r16
     df6:	1f 93       	push	r17
     df8:	df 93       	push	r29
     dfa:	cf 93       	push	r28
     dfc:	0f 92       	push	r0
     dfe:	cd b7       	in	r28, 0x3d	; 61
     e00:	de b7       	in	r29, 0x3e	; 62
     e02:	6c 01       	movw	r12, r24
     e04:	1b 01       	movw	r2, r22
     e06:	00 97       	sbiw	r24, 0x00	; 0
     e08:	09 f4       	brne	.+2      	; 0xe0c <Keypad_Scane+0x34>
     e0a:	61 c0       	rjmp	.+194    	; 0xece <Keypad_Scane+0xf6>
     e0c:	19 82       	std	Y+1, r1	; 0x01
     e0e:	aa 24       	eor	r10, r10
     e10:	bb 24       	eor	r11, r11
     e12:	62 e0       	ldi	r22, 0x02	; 2
     e14:	46 2e       	mov	r4, r22
     e16:	51 2c       	mov	r5, r1
     e18:	48 0e       	add	r4, r24
     e1a:	59 1e       	adc	r5, r25
     e1c:	54 e0       	ldi	r21, 0x04	; 4
     e1e:	65 2e       	mov	r6, r21
     e20:	71 2c       	mov	r7, r1
     e22:	68 0e       	add	r6, r24
     e24:	79 1e       	adc	r7, r25
     e26:	46 e0       	ldi	r20, 0x06	; 6
     e28:	84 2e       	mov	r8, r20
     e2a:	91 2c       	mov	r9, r1
     e2c:	88 0e       	add	r8, r24
     e2e:	99 1e       	adc	r9, r25
     e30:	28 c0       	rjmp	.+80     	; 0xe82 <Keypad_Scane+0xaa>
     e32:	c7 01       	movw	r24, r14
     e34:	04 96       	adiw	r24, 0x04	; 4
     e36:	88 0f       	add	r24, r24
     e38:	99 1f       	adc	r25, r25
     e3a:	8c 0d       	add	r24, r12
     e3c:	9d 1d       	adc	r25, r13
     e3e:	be 01       	movw	r22, r28
     e40:	6f 5f       	subi	r22, 0xFF	; 255
     e42:	7f 4f       	sbci	r23, 0xFF	; 255
     e44:	0e 94 c9 05 	call	0xb92	; 0xb92 <gpio_pin_read>
     e48:	89 81       	ldd	r24, Y+1	; 0x01
     e4a:	81 30       	cpi	r24, 0x01	; 1
     e4c:	41 f4       	brne	.+16     	; 0xe5e <Keypad_Scane+0x86>
     e4e:	84 ec       	ldi	r24, 0xC4	; 196
     e50:	99 e0       	ldi	r25, 0x09	; 9
     e52:	01 97       	sbiw	r24, 0x01	; 1
     e54:	f1 f7       	brne	.-4      	; 0xe52 <Keypad_Scane+0x7a>
     e56:	f8 01       	movw	r30, r16
     e58:	80 81       	ld	r24, Z
     e5a:	f1 01       	movw	r30, r2
     e5c:	80 83       	st	Z, r24
     e5e:	08 94       	sec
     e60:	e1 1c       	adc	r14, r1
     e62:	f1 1c       	adc	r15, r1
     e64:	0f 5f       	subi	r16, 0xFF	; 255
     e66:	1f 4f       	sbci	r17, 0xFF	; 255
     e68:	f4 e0       	ldi	r31, 0x04	; 4
     e6a:	ef 16       	cp	r14, r31
     e6c:	f1 04       	cpc	r15, r1
     e6e:	09 f7       	brne	.-62     	; 0xe32 <Keypad_Scane+0x5a>
     e70:	08 94       	sec
     e72:	a1 1c       	adc	r10, r1
     e74:	b1 1c       	adc	r11, r1
     e76:	84 e0       	ldi	r24, 0x04	; 4
     e78:	a8 16       	cp	r10, r24
     e7a:	b1 04       	cpc	r11, r1
     e7c:	11 f4       	brne	.+4      	; 0xe82 <Keypad_Scane+0xaa>
     e7e:	80 e0       	ldi	r24, 0x00	; 0
     e80:	27 c0       	rjmp	.+78     	; 0xed0 <Keypad_Scane+0xf8>
     e82:	c6 01       	movw	r24, r12
     e84:	60 e0       	ldi	r22, 0x00	; 0
     e86:	0e 94 9f 05 	call	0xb3e	; 0xb3e <gpio_pin_write_logic>
     e8a:	c2 01       	movw	r24, r4
     e8c:	60 e0       	ldi	r22, 0x00	; 0
     e8e:	0e 94 9f 05 	call	0xb3e	; 0xb3e <gpio_pin_write_logic>
     e92:	c3 01       	movw	r24, r6
     e94:	60 e0       	ldi	r22, 0x00	; 0
     e96:	0e 94 9f 05 	call	0xb3e	; 0xb3e <gpio_pin_write_logic>
     e9a:	c4 01       	movw	r24, r8
     e9c:	60 e0       	ldi	r22, 0x00	; 0
     e9e:	0e 94 9f 05 	call	0xb3e	; 0xb3e <gpio_pin_write_logic>
     ea2:	c5 01       	movw	r24, r10
     ea4:	88 0f       	add	r24, r24
     ea6:	99 1f       	adc	r25, r25
     ea8:	8c 0d       	add	r24, r12
     eaa:	9d 1d       	adc	r25, r13
     eac:	61 e0       	ldi	r22, 0x01	; 1
     eae:	0e 94 9f 05 	call	0xb3e	; 0xb3e <gpio_pin_write_logic>
     eb2:	84 ec       	ldi	r24, 0xC4	; 196
     eb4:	99 e0       	ldi	r25, 0x09	; 9
     eb6:	01 97       	sbiw	r24, 0x01	; 1
     eb8:	f1 f7       	brne	.-4      	; 0xeb6 <Keypad_Scane+0xde>
     eba:	85 01       	movw	r16, r10
     ebc:	00 0f       	add	r16, r16
     ebe:	11 1f       	adc	r17, r17
     ec0:	00 0f       	add	r16, r16
     ec2:	11 1f       	adc	r17, r17
     ec4:	07 57       	subi	r16, 0x77	; 119
     ec6:	1e 4f       	sbci	r17, 0xFE	; 254
     ec8:	ee 24       	eor	r14, r14
     eca:	ff 24       	eor	r15, r15
     ecc:	b2 cf       	rjmp	.-156    	; 0xe32 <Keypad_Scane+0x5a>
     ece:	81 e0       	ldi	r24, 0x01	; 1
     ed0:	0f 90       	pop	r0
     ed2:	cf 91       	pop	r28
     ed4:	df 91       	pop	r29
     ed6:	1f 91       	pop	r17
     ed8:	0f 91       	pop	r16
     eda:	ff 90       	pop	r15
     edc:	ef 90       	pop	r14
     ede:	df 90       	pop	r13
     ee0:	cf 90       	pop	r12
     ee2:	bf 90       	pop	r11
     ee4:	af 90       	pop	r10
     ee6:	9f 90       	pop	r9
     ee8:	8f 90       	pop	r8
     eea:	7f 90       	pop	r7
     eec:	6f 90       	pop	r6
     eee:	5f 90       	pop	r5
     ef0:	4f 90       	pop	r4
     ef2:	3f 90       	pop	r3
     ef4:	2f 90       	pop	r2
     ef6:	08 95       	ret

00000ef8 <Keypad_Initialize>:
     ef8:	cf 93       	push	r28
     efa:	df 93       	push	r29
     efc:	ec 01       	movw	r28, r24
     efe:	00 97       	sbiw	r24, 0x00	; 0
     f00:	11 f4       	brne	.+4      	; 0xf06 <Keypad_Initialize+0xe>
     f02:	81 e0       	ldi	r24, 0x01	; 1
     f04:	30 c0       	rjmp	.+96     	; 0xf66 <Keypad_Initialize+0x6e>
     f06:	89 81       	ldd	r24, Y+1	; 0x01
     f08:	87 7e       	andi	r24, 0xE7	; 231
     f0a:	89 83       	std	Y+1, r24	; 0x01
     f0c:	ce 01       	movw	r24, r28
     f0e:	0e 94 fc 05 	call	0xbf8	; 0xbf8 <gpio_pin_initialize>
     f12:	8b 81       	ldd	r24, Y+3	; 0x03
     f14:	87 7e       	andi	r24, 0xE7	; 231
     f16:	8b 83       	std	Y+3, r24	; 0x03
     f18:	ce 01       	movw	r24, r28
     f1a:	02 96       	adiw	r24, 0x02	; 2
     f1c:	0e 94 fc 05 	call	0xbf8	; 0xbf8 <gpio_pin_initialize>
     f20:	8d 81       	ldd	r24, Y+5	; 0x05
     f22:	87 7e       	andi	r24, 0xE7	; 231
     f24:	8d 83       	std	Y+5, r24	; 0x05
     f26:	ce 01       	movw	r24, r28
     f28:	04 96       	adiw	r24, 0x04	; 4
     f2a:	0e 94 fc 05 	call	0xbf8	; 0xbf8 <gpio_pin_initialize>
     f2e:	8f 81       	ldd	r24, Y+7	; 0x07
     f30:	87 7e       	andi	r24, 0xE7	; 231
     f32:	8f 83       	std	Y+7, r24	; 0x07
     f34:	ce 01       	movw	r24, r28
     f36:	06 96       	adiw	r24, 0x06	; 6
     f38:	0e 94 fc 05 	call	0xbf8	; 0xbf8 <gpio_pin_initialize>
     f3c:	ce 01       	movw	r24, r28
     f3e:	08 96       	adiw	r24, 0x08	; 8
     f40:	61 e0       	ldi	r22, 0x01	; 1
     f42:	0e 94 59 05 	call	0xab2	; 0xab2 <gpio_pin_direction_initialize>
     f46:	ce 01       	movw	r24, r28
     f48:	0a 96       	adiw	r24, 0x0a	; 10
     f4a:	61 e0       	ldi	r22, 0x01	; 1
     f4c:	0e 94 59 05 	call	0xab2	; 0xab2 <gpio_pin_direction_initialize>
     f50:	ce 01       	movw	r24, r28
     f52:	0c 96       	adiw	r24, 0x0c	; 12
     f54:	61 e0       	ldi	r22, 0x01	; 1
     f56:	0e 94 59 05 	call	0xab2	; 0xab2 <gpio_pin_direction_initialize>
     f5a:	ce 01       	movw	r24, r28
     f5c:	0e 96       	adiw	r24, 0x0e	; 14
     f5e:	61 e0       	ldi	r22, 0x01	; 1
     f60:	0e 94 59 05 	call	0xab2	; 0xab2 <gpio_pin_direction_initialize>
     f64:	80 e0       	ldi	r24, 0x00	; 0
     f66:	df 91       	pop	r29
     f68:	cf 91       	pop	r28
     f6a:	08 95       	ret

00000f6c <Print_time_Lcd>:
     f6c:	0f 93       	push	r16
     f6e:	1f 93       	push	r17
     f70:	8b ef       	ldi	r24, 0xFB	; 251
     f72:	91 e0       	ldi	r25, 0x01	; 1
     f74:	6a ef       	ldi	r22, 0xFA	; 250
     f76:	71 e0       	ldi	r23, 0x01	; 1
     f78:	0e 94 c0 03 	call	0x780	; 0x780 <Timer0_Calculate_Min_And_Sec>
     f7c:	0d e7       	ldi	r16, 0x7D	; 125
     f7e:	11 e0       	ldi	r17, 0x01	; 1
     f80:	c8 01       	movw	r24, r16
     f82:	61 e0       	ldi	r22, 0x01	; 1
     f84:	43 e0       	ldi	r20, 0x03	; 3
     f86:	2a e3       	ldi	r18, 0x3A	; 58
     f88:	0e 94 5e 0a 	call	0x14bc	; 0x14bc <lcd_4bit_send_char_data_pos>
     f8c:	c8 01       	movw	r24, r16
     f8e:	61 e0       	ldi	r22, 0x01	; 1
     f90:	44 e0       	ldi	r20, 0x04	; 4
     f92:	20 91 fb 01 	lds	r18, 0x01FB
     f96:	0e 94 04 0a 	call	0x1408	; 0x1408 <lcd_4bit_send_num_pos>
     f9a:	c8 01       	movw	r24, r16
     f9c:	61 e0       	ldi	r22, 0x01	; 1
     f9e:	41 e0       	ldi	r20, 0x01	; 1
     fa0:	20 91 fa 01 	lds	r18, 0x01FA
     fa4:	0e 94 04 0a 	call	0x1408	; 0x1408 <lcd_4bit_send_num_pos>
     fa8:	1f 91       	pop	r17
     faa:	0f 91       	pop	r16
     fac:	08 95       	ret

00000fae <Ecu_Init>:
     fae:	8a e5       	ldi	r24, 0x5A	; 90
     fb0:	91 e0       	ldi	r25, 0x01	; 1
     fb2:	0e 94 fc 05 	call	0xbf8	; 0xbf8 <gpio_pin_initialize>
     fb6:	8c e5       	ldi	r24, 0x5C	; 92
     fb8:	91 e0       	ldi	r25, 0x01	; 1
     fba:	0e 94 fc 05 	call	0xbf8	; 0xbf8 <gpio_pin_initialize>
     fbe:	84 e6       	ldi	r24, 0x64	; 100
     fc0:	91 e0       	ldi	r25, 0x01	; 1
     fc2:	0e 94 fc 05 	call	0xbf8	; 0xbf8 <gpio_pin_initialize>
     fc6:	89 e6       	ldi	r24, 0x69	; 105
     fc8:	91 e0       	ldi	r25, 0x01	; 1
     fca:	0e 94 fc 05 	call	0xbf8	; 0xbf8 <gpio_pin_initialize>
     fce:	8b e6       	ldi	r24, 0x6B	; 107
     fd0:	91 e0       	ldi	r25, 0x01	; 1
     fd2:	0e 94 fc 05 	call	0xbf8	; 0xbf8 <gpio_pin_initialize>
     fd6:	8d e6       	ldi	r24, 0x6D	; 109
     fd8:	91 e0       	ldi	r25, 0x01	; 1
     fda:	0e 94 fc 05 	call	0xbf8	; 0xbf8 <gpio_pin_initialize>
     fde:	8f e6       	ldi	r24, 0x6F	; 111
     fe0:	91 e0       	ldi	r25, 0x01	; 1
     fe2:	0e 94 fc 05 	call	0xbf8	; 0xbf8 <gpio_pin_initialize>
     fe6:	81 e7       	ldi	r24, 0x71	; 113
     fe8:	91 e0       	ldi	r25, 0x01	; 1
     fea:	0e 94 fc 05 	call	0xbf8	; 0xbf8 <gpio_pin_initialize>
     fee:	8e e3       	ldi	r24, 0x3E	; 62
     ff0:	91 e0       	ldi	r25, 0x01	; 1
     ff2:	0e 94 a5 0b 	call	0x174a	; 0x174a <button_initialize>
     ff6:	82 e4       	ldi	r24, 0x42	; 66
     ff8:	91 e0       	ldi	r25, 0x01	; 1
     ffa:	0e 94 a5 0b 	call	0x174a	; 0x174a <button_initialize>
     ffe:	86 e4       	ldi	r24, 0x46	; 70
    1000:	91 e0       	ldi	r25, 0x01	; 1
    1002:	0e 94 a5 0b 	call	0x174a	; 0x174a <button_initialize>
    1006:	8a e4       	ldi	r24, 0x4A	; 74
    1008:	91 e0       	ldi	r25, 0x01	; 1
    100a:	0e 94 a5 0b 	call	0x174a	; 0x174a <button_initialize>
    100e:	8e e4       	ldi	r24, 0x4E	; 78
    1010:	91 e0       	ldi	r25, 0x01	; 1
    1012:	0e 94 a5 0b 	call	0x174a	; 0x174a <button_initialize>
    1016:	82 e5       	ldi	r24, 0x52	; 82
    1018:	91 e0       	ldi	r25, 0x01	; 1
    101a:	0e 94 a5 0b 	call	0x174a	; 0x174a <button_initialize>
    101e:	86 e5       	ldi	r24, 0x56	; 86
    1020:	91 e0       	ldi	r25, 0x01	; 1
    1022:	0e 94 a5 0b 	call	0x174a	; 0x174a <button_initialize>
    1026:	83 e7       	ldi	r24, 0x73	; 115
    1028:	91 e0       	ldi	r25, 0x01	; 1
    102a:	0e 94 a5 0b 	call	0x174a	; 0x174a <button_initialize>
    102e:	87 e7       	ldi	r24, 0x77	; 119
    1030:	91 e0       	ldi	r25, 0x01	; 1
    1032:	0e 94 a5 0b 	call	0x174a	; 0x174a <button_initialize>
    1036:	8d e7       	ldi	r24, 0x7D	; 125
    1038:	91 e0       	ldi	r25, 0x01	; 1
    103a:	0e 94 fc 0a 	call	0x15f8	; 0x15f8 <lcd_4bit_intialize>
    103e:	0e 94 65 03 	call	0x6ca	; 0x6ca <Timer0_Init>
    1042:	0e 94 84 03 	call	0x708	; 0x708 <Timer0_Stop>
    1046:	8e e5       	ldi	r24, 0x5E	; 94
    1048:	91 e0       	ldi	r25, 0x01	; 1
    104a:	0e 94 43 08 	call	0x1086	; 0x1086 <Motor_Init>
    104e:	81 e6       	ldi	r24, 0x61	; 97
    1050:	91 e0       	ldi	r25, 0x01	; 1
    1052:	0e 94 43 08 	call	0x1086	; 0x1086 <Motor_Init>
    1056:	86 e6       	ldi	r24, 0x66	; 102
    1058:	91 e0       	ldi	r25, 0x01	; 1
    105a:	0e 94 43 08 	call	0x1086	; 0x1086 <Motor_Init>
    105e:	81 e0       	ldi	r24, 0x01	; 1
    1060:	08 95       	ret

00001062 <Motor_Get_Stat>:
    1062:	0e 94 39 06 	call	0xc72	; 0xc72 <gpio_pin_get_status>
    1066:	90 e0       	ldi	r25, 0x00	; 0
    1068:	81 30       	cpi	r24, 0x01	; 1
    106a:	09 f4       	brne	.+2      	; 0x106e <Motor_Get_Stat+0xc>
    106c:	91 e0       	ldi	r25, 0x01	; 1
    106e:	89 2f       	mov	r24, r25
    1070:	08 95       	ret

00001072 <Motor_Stop>:
    1072:	60 e0       	ldi	r22, 0x00	; 0
    1074:	0e 94 9f 05 	call	0xb3e	; 0xb3e <gpio_pin_write_logic>
    1078:	80 e0       	ldi	r24, 0x00	; 0
    107a:	08 95       	ret

0000107c <Motor_Run>:
    107c:	61 e0       	ldi	r22, 0x01	; 1
    107e:	0e 94 9f 05 	call	0xb3e	; 0xb3e <gpio_pin_write_logic>
    1082:	80 e0       	ldi	r24, 0x00	; 0
    1084:	08 95       	ret

00001086 <Motor_Init>:
    1086:	60 e0       	ldi	r22, 0x00	; 0
    1088:	0e 94 59 05 	call	0xab2	; 0xab2 <gpio_pin_direction_initialize>
    108c:	80 e0       	ldi	r24, 0x00	; 0
    108e:	08 95       	ret

00001090 <lcd_8bit_send_command>:
    1090:	ef 92       	push	r14
    1092:	ff 92       	push	r15
    1094:	0f 93       	push	r16
    1096:	1f 93       	push	r17
    1098:	cf 93       	push	r28
    109a:	df 93       	push	r29
    109c:	8c 01       	movw	r16, r24
    109e:	f6 2e       	mov	r15, r22
    10a0:	00 97       	sbiw	r24, 0x00	; 0
    10a2:	11 f4       	brne	.+4      	; 0x10a8 <lcd_8bit_send_command+0x18>
    10a4:	81 e0       	ldi	r24, 0x01	; 1
    10a6:	29 c0       	rjmp	.+82     	; 0x10fa <lcd_8bit_send_command+0x6a>
    10a8:	60 e0       	ldi	r22, 0x00	; 0
    10aa:	0e 94 9f 05 	call	0xb3e	; 0xb3e <gpio_pin_write_logic>
    10ae:	c0 e0       	ldi	r28, 0x00	; 0
    10b0:	d0 e0       	ldi	r29, 0x00	; 0
    10b2:	ef 2c       	mov	r14, r15
    10b4:	ff 24       	eor	r15, r15
    10b6:	ce 01       	movw	r24, r28
    10b8:	02 96       	adiw	r24, 0x02	; 2
    10ba:	88 0f       	add	r24, r24
    10bc:	99 1f       	adc	r25, r25
    10be:	b7 01       	movw	r22, r14
    10c0:	0c 2e       	mov	r0, r28
    10c2:	02 c0       	rjmp	.+4      	; 0x10c8 <lcd_8bit_send_command+0x38>
    10c4:	75 95       	asr	r23
    10c6:	67 95       	ror	r22
    10c8:	0a 94       	dec	r0
    10ca:	e2 f7       	brpl	.-8      	; 0x10c4 <lcd_8bit_send_command+0x34>
    10cc:	61 70       	andi	r22, 0x01	; 1
    10ce:	80 0f       	add	r24, r16
    10d0:	91 1f       	adc	r25, r17
    10d2:	0e 94 9f 05 	call	0xb3e	; 0xb3e <gpio_pin_write_logic>
    10d6:	21 96       	adiw	r28, 0x01	; 1
    10d8:	c8 30       	cpi	r28, 0x08	; 8
    10da:	d1 05       	cpc	r29, r1
    10dc:	61 f7       	brne	.-40     	; 0x10b6 <lcd_8bit_send_command+0x26>
    10de:	0e 5f       	subi	r16, 0xFE	; 254
    10e0:	1f 4f       	sbci	r17, 0xFF	; 255
    10e2:	c8 01       	movw	r24, r16
    10e4:	61 e0       	ldi	r22, 0x01	; 1
    10e6:	0e 94 9f 05 	call	0xb3e	; 0xb3e <gpio_pin_write_logic>
    10ea:	82 ee       	ldi	r24, 0xE2	; 226
    10ec:	94 e0       	ldi	r25, 0x04	; 4
    10ee:	01 97       	sbiw	r24, 0x01	; 1
    10f0:	f1 f7       	brne	.-4      	; 0x10ee <lcd_8bit_send_command+0x5e>
    10f2:	c8 01       	movw	r24, r16
    10f4:	60 e0       	ldi	r22, 0x00	; 0
    10f6:	0e 94 9f 05 	call	0xb3e	; 0xb3e <gpio_pin_write_logic>
    10fa:	df 91       	pop	r29
    10fc:	cf 91       	pop	r28
    10fe:	1f 91       	pop	r17
    1100:	0f 91       	pop	r16
    1102:	ff 90       	pop	r15
    1104:	ef 90       	pop	r14
    1106:	08 95       	ret

00001108 <lcd_8bit_set_cursor>:
    1108:	62 30       	cpi	r22, 0x02	; 2
    110a:	69 f0       	breq	.+26     	; 0x1126 <lcd_8bit_set_cursor+0x1e>
    110c:	63 30       	cpi	r22, 0x03	; 3
    110e:	18 f4       	brcc	.+6      	; 0x1116 <lcd_8bit_set_cursor+0xe>
    1110:	61 30       	cpi	r22, 0x01	; 1
    1112:	29 f4       	brne	.+10     	; 0x111e <lcd_8bit_set_cursor+0x16>
    1114:	06 c0       	rjmp	.+12     	; 0x1122 <lcd_8bit_set_cursor+0x1a>
    1116:	63 30       	cpi	r22, 0x03	; 3
    1118:	41 f0       	breq	.+16     	; 0x112a <lcd_8bit_set_cursor+0x22>
    111a:	64 30       	cpi	r22, 0x04	; 4
    111c:	59 f0       	breq	.+22     	; 0x1134 <lcd_8bit_set_cursor+0x2c>
    111e:	80 e0       	ldi	r24, 0x00	; 0
    1120:	08 95       	ret
    1122:	41 58       	subi	r20, 0x81	; 129
    1124:	03 c0       	rjmp	.+6      	; 0x112c <lcd_8bit_set_cursor+0x24>
    1126:	41 54       	subi	r20, 0x41	; 65
    1128:	01 c0       	rjmp	.+2      	; 0x112c <lcd_8bit_set_cursor+0x24>
    112a:	4d 56       	subi	r20, 0x6D	; 109
    112c:	64 2f       	mov	r22, r20
    112e:	0e 94 48 08 	call	0x1090	; 0x1090 <lcd_8bit_send_command>
    1132:	08 95       	ret
    1134:	4d 52       	subi	r20, 0x2D	; 45
    1136:	64 2f       	mov	r22, r20
    1138:	0e 94 48 08 	call	0x1090	; 0x1090 <lcd_8bit_send_command>
    113c:	08 95       	ret

0000113e <lcd_8bit_send_char_data>:
    113e:	ef 92       	push	r14
    1140:	ff 92       	push	r15
    1142:	0f 93       	push	r16
    1144:	1f 93       	push	r17
    1146:	cf 93       	push	r28
    1148:	df 93       	push	r29
    114a:	8c 01       	movw	r16, r24
    114c:	f6 2e       	mov	r15, r22
    114e:	00 97       	sbiw	r24, 0x00	; 0
    1150:	11 f4       	brne	.+4      	; 0x1156 <lcd_8bit_send_char_data+0x18>
    1152:	81 e0       	ldi	r24, 0x01	; 1
    1154:	29 c0       	rjmp	.+82     	; 0x11a8 <lcd_8bit_send_char_data+0x6a>
    1156:	61 e0       	ldi	r22, 0x01	; 1
    1158:	0e 94 9f 05 	call	0xb3e	; 0xb3e <gpio_pin_write_logic>
    115c:	c0 e0       	ldi	r28, 0x00	; 0
    115e:	d0 e0       	ldi	r29, 0x00	; 0
    1160:	ef 2c       	mov	r14, r15
    1162:	ff 24       	eor	r15, r15
    1164:	ce 01       	movw	r24, r28
    1166:	02 96       	adiw	r24, 0x02	; 2
    1168:	88 0f       	add	r24, r24
    116a:	99 1f       	adc	r25, r25
    116c:	b7 01       	movw	r22, r14
    116e:	0c 2e       	mov	r0, r28
    1170:	02 c0       	rjmp	.+4      	; 0x1176 <lcd_8bit_send_char_data+0x38>
    1172:	75 95       	asr	r23
    1174:	67 95       	ror	r22
    1176:	0a 94       	dec	r0
    1178:	e2 f7       	brpl	.-8      	; 0x1172 <lcd_8bit_send_char_data+0x34>
    117a:	61 70       	andi	r22, 0x01	; 1
    117c:	80 0f       	add	r24, r16
    117e:	91 1f       	adc	r25, r17
    1180:	0e 94 9f 05 	call	0xb3e	; 0xb3e <gpio_pin_write_logic>
    1184:	21 96       	adiw	r28, 0x01	; 1
    1186:	c8 30       	cpi	r28, 0x08	; 8
    1188:	d1 05       	cpc	r29, r1
    118a:	61 f7       	brne	.-40     	; 0x1164 <lcd_8bit_send_char_data+0x26>
    118c:	0e 5f       	subi	r16, 0xFE	; 254
    118e:	1f 4f       	sbci	r17, 0xFF	; 255
    1190:	c8 01       	movw	r24, r16
    1192:	61 e0       	ldi	r22, 0x01	; 1
    1194:	0e 94 9f 05 	call	0xb3e	; 0xb3e <gpio_pin_write_logic>
    1198:	82 ee       	ldi	r24, 0xE2	; 226
    119a:	94 e0       	ldi	r25, 0x04	; 4
    119c:	01 97       	sbiw	r24, 0x01	; 1
    119e:	f1 f7       	brne	.-4      	; 0x119c <lcd_8bit_send_char_data+0x5e>
    11a0:	c8 01       	movw	r24, r16
    11a2:	60 e0       	ldi	r22, 0x00	; 0
    11a4:	0e 94 9f 05 	call	0xb3e	; 0xb3e <gpio_pin_write_logic>
    11a8:	df 91       	pop	r29
    11aa:	cf 91       	pop	r28
    11ac:	1f 91       	pop	r17
    11ae:	0f 91       	pop	r16
    11b0:	ff 90       	pop	r15
    11b2:	ef 90       	pop	r14
    11b4:	08 95       	ret

000011b6 <lcd_8bit_send_string>:
    11b6:	0f 93       	push	r16
    11b8:	1f 93       	push	r17
    11ba:	cf 93       	push	r28
    11bc:	df 93       	push	r29
    11be:	8c 01       	movw	r16, r24
    11c0:	eb 01       	movw	r28, r22
    11c2:	00 97       	sbiw	r24, 0x00	; 0
    11c4:	11 f4       	brne	.+4      	; 0x11ca <lcd_8bit_send_string+0x14>
    11c6:	81 e0       	ldi	r24, 0x01	; 1
    11c8:	09 c0       	rjmp	.+18     	; 0x11dc <lcd_8bit_send_string+0x26>
    11ca:	80 e0       	ldi	r24, 0x00	; 0
    11cc:	04 c0       	rjmp	.+8      	; 0x11d6 <lcd_8bit_send_string+0x20>
    11ce:	21 96       	adiw	r28, 0x01	; 1
    11d0:	c8 01       	movw	r24, r16
    11d2:	0e 94 9f 08 	call	0x113e	; 0x113e <lcd_8bit_send_char_data>
    11d6:	68 81       	ld	r22, Y
    11d8:	66 23       	and	r22, r22
    11da:	c9 f7       	brne	.-14     	; 0x11ce <lcd_8bit_send_string+0x18>
    11dc:	df 91       	pop	r29
    11de:	cf 91       	pop	r28
    11e0:	1f 91       	pop	r17
    11e2:	0f 91       	pop	r16
    11e4:	08 95       	ret

000011e6 <lcd_8bit_send_string_pos>:
    11e6:	0f 93       	push	r16
    11e8:	1f 93       	push	r17
    11ea:	cf 93       	push	r28
    11ec:	df 93       	push	r29
    11ee:	ec 01       	movw	r28, r24
    11f0:	89 01       	movw	r16, r18
    11f2:	00 97       	sbiw	r24, 0x00	; 0
    11f4:	11 f4       	brne	.+4      	; 0x11fa <lcd_8bit_send_string_pos+0x14>
    11f6:	81 e0       	ldi	r24, 0x01	; 1
    11f8:	06 c0       	rjmp	.+12     	; 0x1206 <lcd_8bit_send_string_pos+0x20>
    11fa:	0e 94 84 08 	call	0x1108	; 0x1108 <lcd_8bit_set_cursor>
    11fe:	ce 01       	movw	r24, r28
    1200:	b8 01       	movw	r22, r16
    1202:	0e 94 db 08 	call	0x11b6	; 0x11b6 <lcd_8bit_send_string>
    1206:	df 91       	pop	r29
    1208:	cf 91       	pop	r28
    120a:	1f 91       	pop	r17
    120c:	0f 91       	pop	r16
    120e:	08 95       	ret

00001210 <lcd_8bit_send_char_data_pos>:
    1210:	1f 93       	push	r17
    1212:	cf 93       	push	r28
    1214:	df 93       	push	r29
    1216:	ec 01       	movw	r28, r24
    1218:	12 2f       	mov	r17, r18
    121a:	00 97       	sbiw	r24, 0x00	; 0
    121c:	11 f4       	brne	.+4      	; 0x1222 <lcd_8bit_send_char_data_pos+0x12>
    121e:	81 e0       	ldi	r24, 0x01	; 1
    1220:	06 c0       	rjmp	.+12     	; 0x122e <lcd_8bit_send_char_data_pos+0x1e>
    1222:	0e 94 84 08 	call	0x1108	; 0x1108 <lcd_8bit_set_cursor>
    1226:	ce 01       	movw	r24, r28
    1228:	61 2f       	mov	r22, r17
    122a:	0e 94 9f 08 	call	0x113e	; 0x113e <lcd_8bit_send_char_data>
    122e:	df 91       	pop	r29
    1230:	cf 91       	pop	r28
    1232:	1f 91       	pop	r17
    1234:	08 95       	ret

00001236 <lcd_8bit_send_custom_char>:
    1236:	bf 92       	push	r11
    1238:	cf 92       	push	r12
    123a:	df 92       	push	r13
    123c:	ef 92       	push	r14
    123e:	ff 92       	push	r15
    1240:	0f 93       	push	r16
    1242:	1f 93       	push	r17
    1244:	cf 93       	push	r28
    1246:	df 93       	push	r29
    1248:	7c 01       	movw	r14, r24
    124a:	16 2f       	mov	r17, r22
    124c:	b4 2e       	mov	r11, r20
    124e:	69 01       	movw	r12, r18
    1250:	00 97       	sbiw	r24, 0x00	; 0
    1252:	11 f4       	brne	.+4      	; 0x1258 <lcd_8bit_send_custom_char+0x22>
    1254:	81 e0       	ldi	r24, 0x01	; 1
    1256:	1e c0       	rjmp	.+60     	; 0x1294 <lcd_8bit_send_custom_char+0x5e>
    1258:	60 2f       	mov	r22, r16
    125a:	70 e0       	ldi	r23, 0x00	; 0
    125c:	68 5f       	subi	r22, 0xF8	; 248
    125e:	7f 4f       	sbci	r23, 0xFF	; 255
    1260:	43 e0       	ldi	r20, 0x03	; 3
    1262:	66 0f       	add	r22, r22
    1264:	77 1f       	adc	r23, r23
    1266:	4a 95       	dec	r20
    1268:	e1 f7       	brne	.-8      	; 0x1262 <lcd_8bit_send_custom_char+0x2c>
    126a:	0e 94 48 08 	call	0x1090	; 0x1090 <lcd_8bit_send_command>
    126e:	c0 e0       	ldi	r28, 0x00	; 0
    1270:	d0 e0       	ldi	r29, 0x00	; 0
    1272:	f6 01       	movw	r30, r12
    1274:	ec 0f       	add	r30, r28
    1276:	fd 1f       	adc	r31, r29
    1278:	c7 01       	movw	r24, r14
    127a:	60 81       	ld	r22, Z
    127c:	0e 94 9f 08 	call	0x113e	; 0x113e <lcd_8bit_send_char_data>
    1280:	21 96       	adiw	r28, 0x01	; 1
    1282:	c8 30       	cpi	r28, 0x08	; 8
    1284:	d1 05       	cpc	r29, r1
    1286:	a9 f7       	brne	.-22     	; 0x1272 <lcd_8bit_send_custom_char+0x3c>
    1288:	c7 01       	movw	r24, r14
    128a:	61 2f       	mov	r22, r17
    128c:	4b 2d       	mov	r20, r11
    128e:	20 2f       	mov	r18, r16
    1290:	0e 94 08 09 	call	0x1210	; 0x1210 <lcd_8bit_send_char_data_pos>
    1294:	df 91       	pop	r29
    1296:	cf 91       	pop	r28
    1298:	1f 91       	pop	r17
    129a:	0f 91       	pop	r16
    129c:	ff 90       	pop	r15
    129e:	ef 90       	pop	r14
    12a0:	df 90       	pop	r13
    12a2:	cf 90       	pop	r12
    12a4:	bf 90       	pop	r11
    12a6:	08 95       	ret

000012a8 <lcd_send_4bits>:
    12a8:	ef 92       	push	r14
    12aa:	ff 92       	push	r15
    12ac:	1f 93       	push	r17
    12ae:	7c 01       	movw	r14, r24
    12b0:	16 2f       	mov	r17, r22
    12b2:	61 70       	andi	r22, 0x01	; 1
    12b4:	04 96       	adiw	r24, 0x04	; 4
    12b6:	0e 94 9f 05 	call	0xb3e	; 0xb3e <gpio_pin_write_logic>
    12ba:	61 2f       	mov	r22, r17
    12bc:	66 95       	lsr	r22
    12be:	61 70       	andi	r22, 0x01	; 1
    12c0:	c7 01       	movw	r24, r14
    12c2:	06 96       	adiw	r24, 0x06	; 6
    12c4:	0e 94 9f 05 	call	0xb3e	; 0xb3e <gpio_pin_write_logic>
    12c8:	16 95       	lsr	r17
    12ca:	16 95       	lsr	r17
    12cc:	61 2f       	mov	r22, r17
    12ce:	61 70       	andi	r22, 0x01	; 1
    12d0:	c7 01       	movw	r24, r14
    12d2:	08 96       	adiw	r24, 0x08	; 8
    12d4:	0e 94 9f 05 	call	0xb3e	; 0xb3e <gpio_pin_write_logic>
    12d8:	16 95       	lsr	r17
    12da:	11 70       	andi	r17, 0x01	; 1
    12dc:	c7 01       	movw	r24, r14
    12de:	0a 96       	adiw	r24, 0x0a	; 10
    12e0:	61 2f       	mov	r22, r17
    12e2:	0e 94 9f 05 	call	0xb3e	; 0xb3e <gpio_pin_write_logic>
    12e6:	1f 91       	pop	r17
    12e8:	ff 90       	pop	r15
    12ea:	ef 90       	pop	r14
    12ec:	08 95       	ret

000012ee <lcd_4bit_send_enable_signal>:
    12ee:	0f 93       	push	r16
    12f0:	1f 93       	push	r17
    12f2:	8c 01       	movw	r16, r24
    12f4:	0e 5f       	subi	r16, 0xFE	; 254
    12f6:	1f 4f       	sbci	r17, 0xFF	; 255
    12f8:	c8 01       	movw	r24, r16
    12fa:	61 e0       	ldi	r22, 0x01	; 1
    12fc:	0e 94 9f 05 	call	0xb3e	; 0xb3e <gpio_pin_write_logic>
    1300:	82 ee       	ldi	r24, 0xE2	; 226
    1302:	94 e0       	ldi	r25, 0x04	; 4
    1304:	01 97       	sbiw	r24, 0x01	; 1
    1306:	f1 f7       	brne	.-4      	; 0x1304 <lcd_4bit_send_enable_signal+0x16>
    1308:	c8 01       	movw	r24, r16
    130a:	60 e0       	ldi	r22, 0x00	; 0
    130c:	0e 94 9f 05 	call	0xb3e	; 0xb3e <gpio_pin_write_logic>
    1310:	1f 91       	pop	r17
    1312:	0f 91       	pop	r16
    1314:	08 95       	ret

00001316 <lcd_4bit_send_command>:
    1316:	1f 93       	push	r17
    1318:	cf 93       	push	r28
    131a:	df 93       	push	r29
    131c:	ec 01       	movw	r28, r24
    131e:	16 2f       	mov	r17, r22
    1320:	00 97       	sbiw	r24, 0x00	; 0
    1322:	11 f4       	brne	.+4      	; 0x1328 <lcd_4bit_send_command+0x12>
    1324:	81 e0       	ldi	r24, 0x01	; 1
    1326:	13 c0       	rjmp	.+38     	; 0x134e <lcd_4bit_send_command+0x38>
    1328:	60 e0       	ldi	r22, 0x00	; 0
    132a:	0e 94 9f 05 	call	0xb3e	; 0xb3e <gpio_pin_write_logic>
    132e:	61 2f       	mov	r22, r17
    1330:	62 95       	swap	r22
    1332:	6f 70       	andi	r22, 0x0F	; 15
    1334:	ce 01       	movw	r24, r28
    1336:	0e 94 54 09 	call	0x12a8	; 0x12a8 <lcd_send_4bits>
    133a:	ce 01       	movw	r24, r28
    133c:	0e 94 77 09 	call	0x12ee	; 0x12ee <lcd_4bit_send_enable_signal>
    1340:	ce 01       	movw	r24, r28
    1342:	61 2f       	mov	r22, r17
    1344:	0e 94 54 09 	call	0x12a8	; 0x12a8 <lcd_send_4bits>
    1348:	ce 01       	movw	r24, r28
    134a:	0e 94 77 09 	call	0x12ee	; 0x12ee <lcd_4bit_send_enable_signal>
    134e:	df 91       	pop	r29
    1350:	cf 91       	pop	r28
    1352:	1f 91       	pop	r17
    1354:	08 95       	ret

00001356 <lcd_4bit_clear>:
    1356:	61 e0       	ldi	r22, 0x01	; 1
    1358:	0e 94 8b 09 	call	0x1316	; 0x1316 <lcd_4bit_send_command>
    135c:	80 e0       	ldi	r24, 0x00	; 0
    135e:	08 95       	ret

00001360 <lcd_4bit_set_cursor>:
    1360:	62 30       	cpi	r22, 0x02	; 2
    1362:	69 f0       	breq	.+26     	; 0x137e <lcd_4bit_set_cursor+0x1e>
    1364:	63 30       	cpi	r22, 0x03	; 3
    1366:	18 f4       	brcc	.+6      	; 0x136e <lcd_4bit_set_cursor+0xe>
    1368:	61 30       	cpi	r22, 0x01	; 1
    136a:	29 f4       	brne	.+10     	; 0x1376 <lcd_4bit_set_cursor+0x16>
    136c:	06 c0       	rjmp	.+12     	; 0x137a <lcd_4bit_set_cursor+0x1a>
    136e:	63 30       	cpi	r22, 0x03	; 3
    1370:	41 f0       	breq	.+16     	; 0x1382 <lcd_4bit_set_cursor+0x22>
    1372:	64 30       	cpi	r22, 0x04	; 4
    1374:	59 f0       	breq	.+22     	; 0x138c <lcd_4bit_set_cursor+0x2c>
    1376:	80 e0       	ldi	r24, 0x00	; 0
    1378:	08 95       	ret
    137a:	41 58       	subi	r20, 0x81	; 129
    137c:	03 c0       	rjmp	.+6      	; 0x1384 <lcd_4bit_set_cursor+0x24>
    137e:	41 54       	subi	r20, 0x41	; 65
    1380:	01 c0       	rjmp	.+2      	; 0x1384 <lcd_4bit_set_cursor+0x24>
    1382:	4d 56       	subi	r20, 0x6D	; 109
    1384:	64 2f       	mov	r22, r20
    1386:	0e 94 8b 09 	call	0x1316	; 0x1316 <lcd_4bit_send_command>
    138a:	08 95       	ret
    138c:	4d 52       	subi	r20, 0x2D	; 45
    138e:	64 2f       	mov	r22, r20
    1390:	0e 94 8b 09 	call	0x1316	; 0x1316 <lcd_4bit_send_command>
    1394:	08 95       	ret

00001396 <lcd_4bit_send_char_data>:
    1396:	1f 93       	push	r17
    1398:	cf 93       	push	r28
    139a:	df 93       	push	r29
    139c:	ec 01       	movw	r28, r24
    139e:	16 2f       	mov	r17, r22
    13a0:	00 97       	sbiw	r24, 0x00	; 0
    13a2:	11 f4       	brne	.+4      	; 0x13a8 <lcd_4bit_send_char_data+0x12>
    13a4:	81 e0       	ldi	r24, 0x01	; 1
    13a6:	13 c0       	rjmp	.+38     	; 0x13ce <lcd_4bit_send_char_data+0x38>
    13a8:	61 e0       	ldi	r22, 0x01	; 1
    13aa:	0e 94 9f 05 	call	0xb3e	; 0xb3e <gpio_pin_write_logic>
    13ae:	61 2f       	mov	r22, r17
    13b0:	62 95       	swap	r22
    13b2:	6f 70       	andi	r22, 0x0F	; 15
    13b4:	ce 01       	movw	r24, r28
    13b6:	0e 94 54 09 	call	0x12a8	; 0x12a8 <lcd_send_4bits>
    13ba:	ce 01       	movw	r24, r28
    13bc:	0e 94 77 09 	call	0x12ee	; 0x12ee <lcd_4bit_send_enable_signal>
    13c0:	ce 01       	movw	r24, r28
    13c2:	61 2f       	mov	r22, r17
    13c4:	0e 94 54 09 	call	0x12a8	; 0x12a8 <lcd_send_4bits>
    13c8:	ce 01       	movw	r24, r28
    13ca:	0e 94 77 09 	call	0x12ee	; 0x12ee <lcd_4bit_send_enable_signal>
    13ce:	df 91       	pop	r29
    13d0:	cf 91       	pop	r28
    13d2:	1f 91       	pop	r17
    13d4:	08 95       	ret

000013d6 <lcd_4bit_send_string_pos>:
    13d6:	0f 93       	push	r16
    13d8:	1f 93       	push	r17
    13da:	cf 93       	push	r28
    13dc:	df 93       	push	r29
    13de:	8c 01       	movw	r16, r24
    13e0:	e9 01       	movw	r28, r18
    13e2:	00 97       	sbiw	r24, 0x00	; 0
    13e4:	11 f4       	brne	.+4      	; 0x13ea <lcd_4bit_send_string_pos+0x14>
    13e6:	81 e0       	ldi	r24, 0x01	; 1
    13e8:	0a c0       	rjmp	.+20     	; 0x13fe <lcd_4bit_send_string_pos+0x28>
    13ea:	0e 94 b0 09 	call	0x1360	; 0x1360 <lcd_4bit_set_cursor>
    13ee:	04 c0       	rjmp	.+8      	; 0x13f8 <lcd_4bit_send_string_pos+0x22>
    13f0:	21 96       	adiw	r28, 0x01	; 1
    13f2:	c8 01       	movw	r24, r16
    13f4:	0e 94 cb 09 	call	0x1396	; 0x1396 <lcd_4bit_send_char_data>
    13f8:	68 81       	ld	r22, Y
    13fa:	66 23       	and	r22, r22
    13fc:	c9 f7       	brne	.-14     	; 0x13f0 <lcd_4bit_send_string_pos+0x1a>
    13fe:	df 91       	pop	r29
    1400:	cf 91       	pop	r28
    1402:	1f 91       	pop	r17
    1404:	0f 91       	pop	r16
    1406:	08 95       	ret

00001408 <lcd_4bit_send_num_pos>:
    1408:	cf 92       	push	r12
    140a:	df 92       	push	r13
    140c:	ef 92       	push	r14
    140e:	ff 92       	push	r15
    1410:	0f 93       	push	r16
    1412:	1f 93       	push	r17
    1414:	df 93       	push	r29
    1416:	cf 93       	push	r28
    1418:	00 d0       	rcall	.+0      	; 0x141a <lcd_4bit_send_num_pos+0x12>
    141a:	00 d0       	rcall	.+0      	; 0x141c <lcd_4bit_send_num_pos+0x14>
    141c:	cd b7       	in	r28, 0x3d	; 61
    141e:	de b7       	in	r29, 0x3e	; 62
    1420:	7c 01       	movw	r14, r24
    1422:	d6 2e       	mov	r13, r22
    1424:	c4 2e       	mov	r12, r20
    1426:	00 d0       	rcall	.+0      	; 0x1428 <lcd_4bit_send_num_pos+0x20>
    1428:	00 d0       	rcall	.+0      	; 0x142a <lcd_4bit_send_num_pos+0x22>
    142a:	00 d0       	rcall	.+0      	; 0x142c <lcd_4bit_send_num_pos+0x24>
    142c:	ed b7       	in	r30, 0x3d	; 61
    142e:	fe b7       	in	r31, 0x3e	; 62
    1430:	31 96       	adiw	r30, 0x01	; 1
    1432:	8e 01       	movw	r16, r28
    1434:	0f 5f       	subi	r16, 0xFF	; 255
    1436:	1f 4f       	sbci	r17, 0xFF	; 255
    1438:	ad b7       	in	r26, 0x3d	; 61
    143a:	be b7       	in	r27, 0x3e	; 62
    143c:	12 96       	adiw	r26, 0x02	; 2
    143e:	1c 93       	st	X, r17
    1440:	0e 93       	st	-X, r16
    1442:	11 97       	sbiw	r26, 0x01	; 1
    1444:	8c ea       	ldi	r24, 0xAC	; 172
    1446:	90 e0       	ldi	r25, 0x00	; 0
    1448:	93 83       	std	Z+3, r25	; 0x03
    144a:	82 83       	std	Z+2, r24	; 0x02
    144c:	24 83       	std	Z+4, r18	; 0x04
    144e:	15 82       	std	Z+5, r1	; 0x05
    1450:	0e 94 5b 0d 	call	0x1ab6	; 0x1ab6 <sprintf>
    1454:	8d b7       	in	r24, 0x3d	; 61
    1456:	9e b7       	in	r25, 0x3e	; 62
    1458:	06 96       	adiw	r24, 0x06	; 6
    145a:	0f b6       	in	r0, 0x3f	; 63
    145c:	f8 94       	cli
    145e:	9e bf       	out	0x3e, r25	; 62
    1460:	0f be       	out	0x3f, r0	; 63
    1462:	8d bf       	out	0x3d, r24	; 61
    1464:	c7 01       	movw	r24, r14
    1466:	6d 2d       	mov	r22, r13
    1468:	4c 2d       	mov	r20, r12
    146a:	98 01       	movw	r18, r16
    146c:	0e 94 eb 09 	call	0x13d6	; 0x13d6 <lcd_4bit_send_string_pos>
    1470:	81 e0       	ldi	r24, 0x01	; 1
    1472:	0f 90       	pop	r0
    1474:	0f 90       	pop	r0
    1476:	0f 90       	pop	r0
    1478:	0f 90       	pop	r0
    147a:	cf 91       	pop	r28
    147c:	df 91       	pop	r29
    147e:	1f 91       	pop	r17
    1480:	0f 91       	pop	r16
    1482:	ff 90       	pop	r15
    1484:	ef 90       	pop	r14
    1486:	df 90       	pop	r13
    1488:	cf 90       	pop	r12
    148a:	08 95       	ret

0000148c <lcd_4bit_send_string>:
    148c:	0f 93       	push	r16
    148e:	1f 93       	push	r17
    1490:	cf 93       	push	r28
    1492:	df 93       	push	r29
    1494:	8c 01       	movw	r16, r24
    1496:	eb 01       	movw	r28, r22
    1498:	00 97       	sbiw	r24, 0x00	; 0
    149a:	11 f4       	brne	.+4      	; 0x14a0 <lcd_4bit_send_string+0x14>
    149c:	81 e0       	ldi	r24, 0x01	; 1
    149e:	09 c0       	rjmp	.+18     	; 0x14b2 <lcd_4bit_send_string+0x26>
    14a0:	80 e0       	ldi	r24, 0x00	; 0
    14a2:	04 c0       	rjmp	.+8      	; 0x14ac <lcd_4bit_send_string+0x20>
    14a4:	21 96       	adiw	r28, 0x01	; 1
    14a6:	c8 01       	movw	r24, r16
    14a8:	0e 94 cb 09 	call	0x1396	; 0x1396 <lcd_4bit_send_char_data>
    14ac:	68 81       	ld	r22, Y
    14ae:	66 23       	and	r22, r22
    14b0:	c9 f7       	brne	.-14     	; 0x14a4 <lcd_4bit_send_string+0x18>
    14b2:	df 91       	pop	r29
    14b4:	cf 91       	pop	r28
    14b6:	1f 91       	pop	r17
    14b8:	0f 91       	pop	r16
    14ba:	08 95       	ret

000014bc <lcd_4bit_send_char_data_pos>:
    14bc:	1f 93       	push	r17
    14be:	cf 93       	push	r28
    14c0:	df 93       	push	r29
    14c2:	ec 01       	movw	r28, r24
    14c4:	12 2f       	mov	r17, r18
    14c6:	00 97       	sbiw	r24, 0x00	; 0
    14c8:	11 f4       	brne	.+4      	; 0x14ce <lcd_4bit_send_char_data_pos+0x12>
    14ca:	81 e0       	ldi	r24, 0x01	; 1
    14cc:	06 c0       	rjmp	.+12     	; 0x14da <lcd_4bit_send_char_data_pos+0x1e>
    14ce:	0e 94 b0 09 	call	0x1360	; 0x1360 <lcd_4bit_set_cursor>
    14d2:	ce 01       	movw	r24, r28
    14d4:	61 2f       	mov	r22, r17
    14d6:	0e 94 cb 09 	call	0x1396	; 0x1396 <lcd_4bit_send_char_data>
    14da:	df 91       	pop	r29
    14dc:	cf 91       	pop	r28
    14de:	1f 91       	pop	r17
    14e0:	08 95       	ret

000014e2 <lcd_4bit_send_custom_char>:
    14e2:	bf 92       	push	r11
    14e4:	cf 92       	push	r12
    14e6:	df 92       	push	r13
    14e8:	ef 92       	push	r14
    14ea:	ff 92       	push	r15
    14ec:	0f 93       	push	r16
    14ee:	1f 93       	push	r17
    14f0:	cf 93       	push	r28
    14f2:	df 93       	push	r29
    14f4:	7c 01       	movw	r14, r24
    14f6:	16 2f       	mov	r17, r22
    14f8:	b4 2e       	mov	r11, r20
    14fa:	69 01       	movw	r12, r18
    14fc:	00 97       	sbiw	r24, 0x00	; 0
    14fe:	11 f4       	brne	.+4      	; 0x1504 <lcd_4bit_send_custom_char+0x22>
    1500:	81 e0       	ldi	r24, 0x01	; 1
    1502:	1e c0       	rjmp	.+60     	; 0x1540 <lcd_4bit_send_custom_char+0x5e>
    1504:	60 2f       	mov	r22, r16
    1506:	70 e0       	ldi	r23, 0x00	; 0
    1508:	68 5f       	subi	r22, 0xF8	; 248
    150a:	7f 4f       	sbci	r23, 0xFF	; 255
    150c:	53 e0       	ldi	r21, 0x03	; 3
    150e:	66 0f       	add	r22, r22
    1510:	77 1f       	adc	r23, r23
    1512:	5a 95       	dec	r21
    1514:	e1 f7       	brne	.-8      	; 0x150e <lcd_4bit_send_custom_char+0x2c>
    1516:	0e 94 8b 09 	call	0x1316	; 0x1316 <lcd_4bit_send_command>
    151a:	c0 e0       	ldi	r28, 0x00	; 0
    151c:	d0 e0       	ldi	r29, 0x00	; 0
    151e:	f6 01       	movw	r30, r12
    1520:	ec 0f       	add	r30, r28
    1522:	fd 1f       	adc	r31, r29
    1524:	c7 01       	movw	r24, r14
    1526:	60 81       	ld	r22, Z
    1528:	0e 94 cb 09 	call	0x1396	; 0x1396 <lcd_4bit_send_char_data>
    152c:	21 96       	adiw	r28, 0x01	; 1
    152e:	c8 30       	cpi	r28, 0x08	; 8
    1530:	d1 05       	cpc	r29, r1
    1532:	a9 f7       	brne	.-22     	; 0x151e <lcd_4bit_send_custom_char+0x3c>
    1534:	c7 01       	movw	r24, r14
    1536:	61 2f       	mov	r22, r17
    1538:	4b 2d       	mov	r20, r11
    153a:	20 2f       	mov	r18, r16
    153c:	0e 94 5e 0a 	call	0x14bc	; 0x14bc <lcd_4bit_send_char_data_pos>
    1540:	df 91       	pop	r29
    1542:	cf 91       	pop	r28
    1544:	1f 91       	pop	r17
    1546:	0f 91       	pop	r16
    1548:	ff 90       	pop	r15
    154a:	ef 90       	pop	r14
    154c:	df 90       	pop	r13
    154e:	cf 90       	pop	r12
    1550:	bf 90       	pop	r11
    1552:	08 95       	ret

00001554 <lcd_8bit_intialize>:
    1554:	0f 93       	push	r16
    1556:	1f 93       	push	r17
    1558:	cf 93       	push	r28
    155a:	df 93       	push	r29
    155c:	8c 01       	movw	r16, r24
    155e:	00 97       	sbiw	r24, 0x00	; 0
    1560:	11 f4       	brne	.+4      	; 0x1566 <lcd_8bit_intialize+0x12>
    1562:	81 e0       	ldi	r24, 0x01	; 1
    1564:	44 c0       	rjmp	.+136    	; 0x15ee <lcd_8bit_intialize+0x9a>
    1566:	0e 94 fc 05 	call	0xbf8	; 0xbf8 <gpio_pin_initialize>
    156a:	c8 01       	movw	r24, r16
    156c:	02 96       	adiw	r24, 0x02	; 2
    156e:	0e 94 fc 05 	call	0xbf8	; 0xbf8 <gpio_pin_initialize>
    1572:	c0 e0       	ldi	r28, 0x00	; 0
    1574:	d0 e0       	ldi	r29, 0x00	; 0
    1576:	22 96       	adiw	r28, 0x02	; 2
    1578:	ce 01       	movw	r24, r28
    157a:	88 0f       	add	r24, r24
    157c:	99 1f       	adc	r25, r25
    157e:	80 0f       	add	r24, r16
    1580:	91 1f       	adc	r25, r17
    1582:	0e 94 fc 05 	call	0xbf8	; 0xbf8 <gpio_pin_initialize>
    1586:	21 97       	sbiw	r28, 0x01	; 1
    1588:	c8 30       	cpi	r28, 0x08	; 8
    158a:	d1 05       	cpc	r29, r1
    158c:	a1 f7       	brne	.-24     	; 0x1576 <lcd_8bit_intialize+0x22>
    158e:	88 e8       	ldi	r24, 0x88	; 136
    1590:	93 e1       	ldi	r25, 0x13	; 19
    1592:	01 97       	sbiw	r24, 0x01	; 1
    1594:	f1 f7       	brne	.-4      	; 0x1592 <lcd_8bit_intialize+0x3e>
    1596:	c8 01       	movw	r24, r16
    1598:	68 e3       	ldi	r22, 0x38	; 56
    159a:	0e 94 48 08 	call	0x1090	; 0x1090 <lcd_8bit_send_command>
    159e:	82 ee       	ldi	r24, 0xE2	; 226
    15a0:	94 e0       	ldi	r25, 0x04	; 4
    15a2:	01 97       	sbiw	r24, 0x01	; 1
    15a4:	f1 f7       	brne	.-4      	; 0x15a2 <lcd_8bit_intialize+0x4e>
    15a6:	c8 01       	movw	r24, r16
    15a8:	68 e3       	ldi	r22, 0x38	; 56
    15aa:	0e 94 48 08 	call	0x1090	; 0x1090 <lcd_8bit_send_command>
    15ae:	8c e7       	ldi	r24, 0x7C	; 124
    15b0:	92 e9       	ldi	r25, 0x92	; 146
    15b2:	01 97       	sbiw	r24, 0x01	; 1
    15b4:	f1 f7       	brne	.-4      	; 0x15b2 <lcd_8bit_intialize+0x5e>
    15b6:	c8 01       	movw	r24, r16
    15b8:	68 e3       	ldi	r22, 0x38	; 56
    15ba:	0e 94 48 08 	call	0x1090	; 0x1090 <lcd_8bit_send_command>
    15be:	c8 01       	movw	r24, r16
    15c0:	61 e0       	ldi	r22, 0x01	; 1
    15c2:	0e 94 48 08 	call	0x1090	; 0x1090 <lcd_8bit_send_command>
    15c6:	c8 01       	movw	r24, r16
    15c8:	62 e0       	ldi	r22, 0x02	; 2
    15ca:	0e 94 48 08 	call	0x1090	; 0x1090 <lcd_8bit_send_command>
    15ce:	c8 01       	movw	r24, r16
    15d0:	66 e0       	ldi	r22, 0x06	; 6
    15d2:	0e 94 48 08 	call	0x1090	; 0x1090 <lcd_8bit_send_command>
    15d6:	c8 01       	movw	r24, r16
    15d8:	6c e0       	ldi	r22, 0x0C	; 12
    15da:	0e 94 48 08 	call	0x1090	; 0x1090 <lcd_8bit_send_command>
    15de:	c8 01       	movw	r24, r16
    15e0:	68 e3       	ldi	r22, 0x38	; 56
    15e2:	0e 94 48 08 	call	0x1090	; 0x1090 <lcd_8bit_send_command>
    15e6:	c8 01       	movw	r24, r16
    15e8:	60 e8       	ldi	r22, 0x80	; 128
    15ea:	0e 94 48 08 	call	0x1090	; 0x1090 <lcd_8bit_send_command>
    15ee:	df 91       	pop	r29
    15f0:	cf 91       	pop	r28
    15f2:	1f 91       	pop	r17
    15f4:	0f 91       	pop	r16
    15f6:	08 95       	ret

000015f8 <lcd_4bit_intialize>:
    15f8:	0f 93       	push	r16
    15fa:	1f 93       	push	r17
    15fc:	cf 93       	push	r28
    15fe:	df 93       	push	r29
    1600:	ec 01       	movw	r28, r24
    1602:	00 97       	sbiw	r24, 0x00	; 0
    1604:	11 f4       	brne	.+4      	; 0x160a <lcd_4bit_intialize+0x12>
    1606:	81 e0       	ldi	r24, 0x01	; 1
    1608:	56 c0       	rjmp	.+172    	; 0x16b6 <lcd_4bit_intialize+0xbe>
    160a:	60 e0       	ldi	r22, 0x00	; 0
    160c:	0e 94 59 05 	call	0xab2	; 0xab2 <gpio_pin_direction_initialize>
    1610:	ce 01       	movw	r24, r28
    1612:	02 96       	adiw	r24, 0x02	; 2
    1614:	60 e0       	ldi	r22, 0x00	; 0
    1616:	0e 94 59 05 	call	0xab2	; 0xab2 <gpio_pin_direction_initialize>
    161a:	ce 01       	movw	r24, r28
    161c:	04 96       	adiw	r24, 0x04	; 4
    161e:	60 e0       	ldi	r22, 0x00	; 0
    1620:	0e 94 59 05 	call	0xab2	; 0xab2 <gpio_pin_direction_initialize>
    1624:	ce 01       	movw	r24, r28
    1626:	06 96       	adiw	r24, 0x06	; 6
    1628:	60 e0       	ldi	r22, 0x00	; 0
    162a:	0e 94 59 05 	call	0xab2	; 0xab2 <gpio_pin_direction_initialize>
    162e:	ce 01       	movw	r24, r28
    1630:	08 96       	adiw	r24, 0x08	; 8
    1632:	60 e0       	ldi	r22, 0x00	; 0
    1634:	0e 94 59 05 	call	0xab2	; 0xab2 <gpio_pin_direction_initialize>
    1638:	ce 01       	movw	r24, r28
    163a:	0a 96       	adiw	r24, 0x0a	; 10
    163c:	60 e0       	ldi	r22, 0x00	; 0
    163e:	0e 94 59 05 	call	0xab2	; 0xab2 <gpio_pin_direction_initialize>
    1642:	88 e8       	ldi	r24, 0x88	; 136
    1644:	93 e1       	ldi	r25, 0x13	; 19
    1646:	01 97       	sbiw	r24, 0x01	; 1
    1648:	f1 f7       	brne	.-4      	; 0x1646 <lcd_4bit_intialize+0x4e>
    164a:	ce 01       	movw	r24, r28
    164c:	68 e3       	ldi	r22, 0x38	; 56
    164e:	0e 94 8b 09 	call	0x1316	; 0x1316 <lcd_4bit_send_command>
    1652:	82 ee       	ldi	r24, 0xE2	; 226
    1654:	94 e0       	ldi	r25, 0x04	; 4
    1656:	01 97       	sbiw	r24, 0x01	; 1
    1658:	f1 f7       	brne	.-4      	; 0x1656 <lcd_4bit_intialize+0x5e>
    165a:	ce 01       	movw	r24, r28
    165c:	68 e3       	ldi	r22, 0x38	; 56
    165e:	0e 94 8b 09 	call	0x1316	; 0x1316 <lcd_4bit_send_command>
    1662:	0c e7       	ldi	r16, 0x7C	; 124
    1664:	12 e9       	ldi	r17, 0x92	; 146
    1666:	c8 01       	movw	r24, r16
    1668:	01 97       	sbiw	r24, 0x01	; 1
    166a:	f1 f7       	brne	.-4      	; 0x1668 <lcd_4bit_intialize+0x70>
    166c:	ce 01       	movw	r24, r28
    166e:	68 e3       	ldi	r22, 0x38	; 56
    1670:	0e 94 8b 09 	call	0x1316	; 0x1316 <lcd_4bit_send_command>
    1674:	ce 01       	movw	r24, r28
    1676:	61 e0       	ldi	r22, 0x01	; 1
    1678:	0e 94 8b 09 	call	0x1316	; 0x1316 <lcd_4bit_send_command>
    167c:	ce 01       	movw	r24, r28
    167e:	62 e0       	ldi	r22, 0x02	; 2
    1680:	0e 94 8b 09 	call	0x1316	; 0x1316 <lcd_4bit_send_command>
    1684:	ce 01       	movw	r24, r28
    1686:	66 e0       	ldi	r22, 0x06	; 6
    1688:	0e 94 8b 09 	call	0x1316	; 0x1316 <lcd_4bit_send_command>
    168c:	ce 01       	movw	r24, r28
    168e:	6c e0       	ldi	r22, 0x0C	; 12
    1690:	0e 94 8b 09 	call	0x1316	; 0x1316 <lcd_4bit_send_command>
    1694:	ce 01       	movw	r24, r28
    1696:	68 e2       	ldi	r22, 0x28	; 40
    1698:	0e 94 8b 09 	call	0x1316	; 0x1316 <lcd_4bit_send_command>
    169c:	ce 01       	movw	r24, r28
    169e:	60 e8       	ldi	r22, 0x80	; 128
    16a0:	0e 94 8b 09 	call	0x1316	; 0x1316 <lcd_4bit_send_command>
    16a4:	f8 01       	movw	r30, r16
    16a6:	31 97       	sbiw	r30, 0x01	; 1
    16a8:	f1 f7       	brne	.-4      	; 0x16a6 <lcd_4bit_intialize+0xae>
    16aa:	f8 01       	movw	r30, r16
    16ac:	31 97       	sbiw	r30, 0x01	; 1
    16ae:	f1 f7       	brne	.-4      	; 0x16ac <lcd_4bit_intialize+0xb4>
    16b0:	f8 01       	movw	r30, r16
    16b2:	31 97       	sbiw	r30, 0x01	; 1
    16b4:	f1 f7       	brne	.-4      	; 0x16b2 <lcd_4bit_intialize+0xba>
    16b6:	df 91       	pop	r29
    16b8:	cf 91       	pop	r28
    16ba:	1f 91       	pop	r17
    16bc:	0f 91       	pop	r16
    16be:	08 95       	ret

000016c0 <button_read_state>:
    16c0:	ef 92       	push	r14
    16c2:	ff 92       	push	r15
    16c4:	0f 93       	push	r16
    16c6:	1f 93       	push	r17
    16c8:	df 93       	push	r29
    16ca:	cf 93       	push	r28
    16cc:	00 d0       	rcall	.+0      	; 0x16ce <button_read_state+0xe>
    16ce:	0f 92       	push	r0
    16d0:	cd b7       	in	r28, 0x3d	; 61
    16d2:	de b7       	in	r29, 0x3e	; 62
    16d4:	8c 01       	movw	r16, r24
    16d6:	7b 01       	movw	r14, r22
    16d8:	fc 01       	movw	r30, r24
    16da:	20 81       	ld	r18, Z
    16dc:	91 81       	ldd	r25, Z+1	; 0x01
    16de:	97 70       	andi	r25, 0x07	; 7
    16e0:	01 15       	cp	r16, r1
    16e2:	11 05       	cpc	r17, r1
    16e4:	39 f1       	breq	.+78     	; 0x1734 <button_read_state+0x74>
    16e6:	61 15       	cp	r22, r1
    16e8:	71 05       	cpc	r23, r1
    16ea:	21 f1       	breq	.+72     	; 0x1734 <button_read_state+0x74>
    16ec:	1b 82       	std	Y+3, r1	; 0x03
    16ee:	1a 82       	std	Y+2, r1	; 0x02
    16f0:	8b 81       	ldd	r24, Y+3	; 0x03
    16f2:	88 7f       	andi	r24, 0xF8	; 248
    16f4:	89 2b       	or	r24, r25
    16f6:	8b 83       	std	Y+3, r24	; 0x03
    16f8:	2a 83       	std	Y+2, r18	; 0x02
    16fa:	19 82       	std	Y+1, r1	; 0x01
    16fc:	ce 01       	movw	r24, r28
    16fe:	02 96       	adiw	r24, 0x02	; 2
    1700:	be 01       	movw	r22, r28
    1702:	6f 5f       	subi	r22, 0xFF	; 255
    1704:	7f 4f       	sbci	r23, 0xFF	; 255
    1706:	0e 94 c9 05 	call	0xb92	; 0xb92 <gpio_pin_read>
    170a:	f8 01       	movw	r30, r16
    170c:	83 81       	ldd	r24, Z+3	; 0x03
    170e:	88 23       	and	r24, r24
    1710:	29 f4       	brne	.+10     	; 0x171c <button_read_state+0x5c>
    1712:	89 81       	ldd	r24, Y+1	; 0x01
    1714:	81 30       	cpi	r24, 0x01	; 1
    1716:	51 f0       	breq	.+20     	; 0x172c <button_read_state+0x6c>
    1718:	81 e0       	ldi	r24, 0x01	; 1
    171a:	05 c0       	rjmp	.+10     	; 0x1726 <button_read_state+0x66>
    171c:	81 30       	cpi	r24, 0x01	; 1
    171e:	41 f4       	brne	.+16     	; 0x1730 <button_read_state+0x70>
    1720:	89 81       	ldd	r24, Y+1	; 0x01
    1722:	81 30       	cpi	r24, 0x01	; 1
    1724:	19 f4       	brne	.+6      	; 0x172c <button_read_state+0x6c>
    1726:	f7 01       	movw	r30, r14
    1728:	80 83       	st	Z, r24
    172a:	02 c0       	rjmp	.+4      	; 0x1730 <button_read_state+0x70>
    172c:	f7 01       	movw	r30, r14
    172e:	10 82       	st	Z, r1
    1730:	80 e0       	ldi	r24, 0x00	; 0
    1732:	01 c0       	rjmp	.+2      	; 0x1736 <button_read_state+0x76>
    1734:	81 e0       	ldi	r24, 0x01	; 1
    1736:	0f 90       	pop	r0
    1738:	0f 90       	pop	r0
    173a:	0f 90       	pop	r0
    173c:	cf 91       	pop	r28
    173e:	df 91       	pop	r29
    1740:	1f 91       	pop	r17
    1742:	0f 91       	pop	r16
    1744:	ff 90       	pop	r15
    1746:	ef 90       	pop	r14
    1748:	08 95       	ret

0000174a <button_initialize>:
    174a:	00 97       	sbiw	r24, 0x00	; 0
    174c:	11 f4       	brne	.+4      	; 0x1752 <button_initialize+0x8>
    174e:	81 e0       	ldi	r24, 0x01	; 1
    1750:	08 95       	ret
    1752:	61 e0       	ldi	r22, 0x01	; 1
    1754:	0e 94 59 05 	call	0xab2	; 0xab2 <gpio_pin_direction_initialize>
    1758:	08 95       	ret

0000175a <clear_lcd_lin_num>:
    175a:	df 93       	push	r29
    175c:	cf 93       	push	r28
    175e:	cd b7       	in	r28, 0x3d	; 61
    1760:	de b7       	in	r29, 0x3e	; 62
    1762:	c0 55       	subi	r28, 0x50	; 80
    1764:	d0 40       	sbci	r29, 0x00	; 0
    1766:	0f b6       	in	r0, 0x3f	; 63
    1768:	f8 94       	cli
    176a:	de bf       	out	0x3e, r29	; 62
    176c:	0f be       	out	0x3f, r0	; 63
    176e:	cd bf       	out	0x3d, r28	; 61
    1770:	68 2f       	mov	r22, r24
    1772:	de 01       	movw	r26, r28
    1774:	11 96       	adiw	r26, 0x01	; 1
    1776:	e9 e9       	ldi	r30, 0x99	; 153
    1778:	f1 e0       	ldi	r31, 0x01	; 1
    177a:	80 e5       	ldi	r24, 0x50	; 80
    177c:	01 90       	ld	r0, Z+
    177e:	0d 92       	st	X+, r0
    1780:	81 50       	subi	r24, 0x01	; 1
    1782:	e1 f7       	brne	.-8      	; 0x177c <clear_lcd_lin_num+0x22>
    1784:	24 e1       	ldi	r18, 0x14	; 20
    1786:	62 9f       	mul	r22, r18
    1788:	90 01       	movw	r18, r0
    178a:	11 24       	eor	r1, r1
    178c:	2c 0f       	add	r18, r28
    178e:	3d 1f       	adc	r19, r29
    1790:	23 51       	subi	r18, 0x13	; 19
    1792:	30 40       	sbci	r19, 0x00	; 0
    1794:	8d e7       	ldi	r24, 0x7D	; 125
    1796:	91 e0       	ldi	r25, 0x01	; 1
    1798:	41 e0       	ldi	r20, 0x01	; 1
    179a:	0e 94 eb 09 	call	0x13d6	; 0x13d6 <lcd_4bit_send_string_pos>
    179e:	c0 5b       	subi	r28, 0xB0	; 176
    17a0:	df 4f       	sbci	r29, 0xFF	; 255
    17a2:	0f b6       	in	r0, 0x3f	; 63
    17a4:	f8 94       	cli
    17a6:	de bf       	out	0x3e, r29	; 62
    17a8:	0f be       	out	0x3f, r0	; 63
    17aa:	cd bf       	out	0x3d, r28	; 61
    17ac:	cf 91       	pop	r28
    17ae:	df 91       	pop	r29
    17b0:	08 95       	ret

000017b2 <Machine_Lcd_Init>:
    17b2:	df 93       	push	r29
    17b4:	cf 93       	push	r28
    17b6:	cd b7       	in	r28, 0x3d	; 61
    17b8:	de b7       	in	r29, 0x3e	; 62
    17ba:	e8 97       	sbiw	r28, 0x38	; 56
    17bc:	0f b6       	in	r0, 0x3f	; 63
    17be:	f8 94       	cli
    17c0:	de bf       	out	0x3e, r29	; 62
    17c2:	0f be       	out	0x3f, r0	; 63
    17c4:	cd bf       	out	0x3d, r28	; 61
    17c6:	de 01       	movw	r26, r28
    17c8:	94 96       	adiw	r26, 0x24	; 36
    17ca:	ef ea       	ldi	r30, 0xAF	; 175
    17cc:	f0 e0       	ldi	r31, 0x00	; 0
    17ce:	85 e1       	ldi	r24, 0x15	; 21
    17d0:	01 90       	ld	r0, Z+
    17d2:	0d 92       	st	X+, r0
    17d4:	81 50       	subi	r24, 0x01	; 1
    17d6:	e1 f7       	brne	.-8      	; 0x17d0 <Machine_Lcd_Init+0x1e>
    17d8:	de 01       	movw	r26, r28
    17da:	11 96       	adiw	r26, 0x01	; 1
    17dc:	e4 ec       	ldi	r30, 0xC4	; 196
    17de:	f0 e0       	ldi	r31, 0x00	; 0
    17e0:	80 e1       	ldi	r24, 0x10	; 16
    17e2:	01 90       	ld	r0, Z+
    17e4:	0d 92       	st	X+, r0
    17e6:	81 50       	subi	r24, 0x01	; 1
    17e8:	e1 f7       	brne	.-8      	; 0x17e2 <Machine_Lcd_Init+0x30>
    17ea:	de 01       	movw	r26, r28
    17ec:	51 96       	adiw	r26, 0x11	; 17
    17ee:	e4 ed       	ldi	r30, 0xD4	; 212
    17f0:	f0 e0       	ldi	r31, 0x00	; 0
    17f2:	83 e1       	ldi	r24, 0x13	; 19
    17f4:	01 90       	ld	r0, Z+
    17f6:	0d 92       	st	X+, r0
    17f8:	81 50       	subi	r24, 0x01	; 1
    17fa:	e1 f7       	brne	.-8      	; 0x17f4 <Machine_Lcd_Init+0x42>
    17fc:	8d e7       	ldi	r24, 0x7D	; 125
    17fe:	91 e0       	ldi	r25, 0x01	; 1
    1800:	61 e0       	ldi	r22, 0x01	; 1
    1802:	41 e0       	ldi	r20, 0x01	; 1
    1804:	9e 01       	movw	r18, r28
    1806:	2c 5d       	subi	r18, 0xDC	; 220
    1808:	3f 4f       	sbci	r19, 0xFF	; 255
    180a:	0e 94 eb 09 	call	0x13d6	; 0x13d6 <lcd_4bit_send_string_pos>
    180e:	8d e7       	ldi	r24, 0x7D	; 125
    1810:	91 e0       	ldi	r25, 0x01	; 1
    1812:	63 e0       	ldi	r22, 0x03	; 3
    1814:	41 e0       	ldi	r20, 0x01	; 1
    1816:	9e 01       	movw	r18, r28
    1818:	2f 5f       	subi	r18, 0xFF	; 255
    181a:	3f 4f       	sbci	r19, 0xFF	; 255
    181c:	0e 94 eb 09 	call	0x13d6	; 0x13d6 <lcd_4bit_send_string_pos>
    1820:	8d e7       	ldi	r24, 0x7D	; 125
    1822:	91 e0       	ldi	r25, 0x01	; 1
    1824:	64 e0       	ldi	r22, 0x04	; 4
    1826:	41 e0       	ldi	r20, 0x01	; 1
    1828:	9e 01       	movw	r18, r28
    182a:	2f 5e       	subi	r18, 0xEF	; 239
    182c:	3f 4f       	sbci	r19, 0xFF	; 255
    182e:	0e 94 eb 09 	call	0x13d6	; 0x13d6 <lcd_4bit_send_string_pos>
    1832:	e8 96       	adiw	r28, 0x38	; 56
    1834:	0f b6       	in	r0, 0x3f	; 63
    1836:	f8 94       	cli
    1838:	de bf       	out	0x3e, r29	; 62
    183a:	0f be       	out	0x3f, r0	; 63
    183c:	cd bf       	out	0x3d, r28	; 61
    183e:	cf 91       	pop	r28
    1840:	df 91       	pop	r29
    1842:	08 95       	ret

00001844 <Machine_Lcd_Updat>:
    1844:	0f 93       	push	r16
    1846:	df 93       	push	r29
    1848:	cf 93       	push	r28
    184a:	cd b7       	in	r28, 0x3d	; 61
    184c:	de b7       	in	r29, 0x3e	; 62
    184e:	c0 54       	subi	r28, 0x40	; 64
    1850:	d0 40       	sbci	r29, 0x00	; 0
    1852:	0f b6       	in	r0, 0x3f	; 63
    1854:	f8 94       	cli
    1856:	de bf       	out	0x3e, r29	; 62
    1858:	0f be       	out	0x3f, r0	; 63
    185a:	cd bf       	out	0x3d, r28	; 61
    185c:	80 91 2e 01 	lds	r24, 0x012E
    1860:	88 23       	and	r24, r24
    1862:	09 f0       	breq	.+2      	; 0x1866 <Machine_Lcd_Updat+0x22>
    1864:	05 c1       	rjmp	.+522    	; 0x1a70 <Machine_Lcd_Updat+0x22c>
    1866:	de 01       	movw	r26, r28
    1868:	9c 96       	adiw	r26, 0x2c	; 44
    186a:	e7 ee       	ldi	r30, 0xE7	; 231
    186c:	f0 e0       	ldi	r31, 0x00	; 0
    186e:	85 e1       	ldi	r24, 0x15	; 21
    1870:	01 90       	ld	r0, Z+
    1872:	0d 92       	st	X+, r0
    1874:	81 50       	subi	r24, 0x01	; 1
    1876:	e1 f7       	brne	.-8      	; 0x1870 <Machine_Lcd_Updat+0x2c>
    1878:	de 01       	movw	r26, r28
    187a:	5e 96       	adiw	r26, 0x1e	; 30
    187c:	ec ef       	ldi	r30, 0xFC	; 252
    187e:	f0 e0       	ldi	r31, 0x00	; 0
    1880:	8e e0       	ldi	r24, 0x0E	; 14
    1882:	01 90       	ld	r0, Z+
    1884:	0d 92       	st	X+, r0
    1886:	81 50       	subi	r24, 0x01	; 1
    1888:	e1 f7       	brne	.-8      	; 0x1882 <Machine_Lcd_Updat+0x3e>
    188a:	80 91 fc 01 	lds	r24, 0x01FC
    188e:	88 23       	and	r24, r24
    1890:	f1 f4       	brne	.+60     	; 0x18ce <Machine_Lcd_Updat+0x8a>
    1892:	82 e0       	ldi	r24, 0x02	; 2
    1894:	0e 94 ad 0b 	call	0x175a	; 0x175a <clear_lcd_lin_num>
    1898:	83 e0       	ldi	r24, 0x03	; 3
    189a:	0e 94 ad 0b 	call	0x175a	; 0x175a <clear_lcd_lin_num>
    189e:	84 e0       	ldi	r24, 0x04	; 4
    18a0:	0e 94 ad 0b 	call	0x175a	; 0x175a <clear_lcd_lin_num>
    18a4:	8d e7       	ldi	r24, 0x7D	; 125
    18a6:	91 e0       	ldi	r25, 0x01	; 1
    18a8:	62 e0       	ldi	r22, 0x02	; 2
    18aa:	41 e0       	ldi	r20, 0x01	; 1
    18ac:	9e 01       	movw	r18, r28
    18ae:	24 5d       	subi	r18, 0xD4	; 212
    18b0:	3f 4f       	sbci	r19, 0xFF	; 255
    18b2:	0e 94 eb 09 	call	0x13d6	; 0x13d6 <lcd_4bit_send_string_pos>
    18b6:	8d e7       	ldi	r24, 0x7D	; 125
    18b8:	91 e0       	ldi	r25, 0x01	; 1
    18ba:	63 e0       	ldi	r22, 0x03	; 3
    18bc:	41 e0       	ldi	r20, 0x01	; 1
    18be:	9e 01       	movw	r18, r28
    18c0:	22 5e       	subi	r18, 0xE2	; 226
    18c2:	3f 4f       	sbci	r19, 0xFF	; 255
    18c4:	0e 94 eb 09 	call	0x13d6	; 0x13d6 <lcd_4bit_send_string_pos>
    18c8:	85 e0       	ldi	r24, 0x05	; 5
    18ca:	80 93 fc 01 	sts	0x01FC, r24
    18ce:	80 91 ea 01 	lds	r24, 0x01EA
    18d2:	8b 39       	cpi	r24, 0x9B	; 155
    18d4:	09 f4       	brne	.+2      	; 0x18d8 <Machine_Lcd_Updat+0x94>
    18d6:	cc c0       	rjmp	.+408    	; 0x1a70 <Machine_Lcd_Updat+0x22c>
    18d8:	82 30       	cpi	r24, 0x02	; 2
    18da:	09 f4       	brne	.+2      	; 0x18de <Machine_Lcd_Updat+0x9a>
    18dc:	82 c0       	rjmp	.+260    	; 0x19e2 <Machine_Lcd_Updat+0x19e>
    18de:	83 30       	cpi	r24, 0x03	; 3
    18e0:	30 f4       	brcc	.+12     	; 0x18ee <Machine_Lcd_Updat+0xaa>
    18e2:	88 23       	and	r24, r24
    18e4:	59 f0       	breq	.+22     	; 0x18fc <Machine_Lcd_Updat+0xb8>
    18e6:	81 30       	cpi	r24, 0x01	; 1
    18e8:	09 f0       	breq	.+2      	; 0x18ec <Machine_Lcd_Updat+0xa8>
    18ea:	c2 c0       	rjmp	.+388    	; 0x1a70 <Machine_Lcd_Updat+0x22c>
    18ec:	28 c0       	rjmp	.+80     	; 0x193e <Machine_Lcd_Updat+0xfa>
    18ee:	83 30       	cpi	r24, 0x03	; 3
    18f0:	09 f4       	brne	.+2      	; 0x18f4 <Machine_Lcd_Updat+0xb0>
    18f2:	4f c0       	rjmp	.+158    	; 0x1992 <Machine_Lcd_Updat+0x14e>
    18f4:	84 30       	cpi	r24, 0x04	; 4
    18f6:	09 f0       	breq	.+2      	; 0x18fa <Machine_Lcd_Updat+0xb6>
    18f8:	bb c0       	rjmp	.+374    	; 0x1a70 <Machine_Lcd_Updat+0x22c>
    18fa:	9b c0       	rjmp	.+310    	; 0x1a32 <Machine_Lcd_Updat+0x1ee>
    18fc:	80 91 fd 01 	lds	r24, 0x01FD
    1900:	88 23       	and	r24, r24
    1902:	09 f0       	breq	.+2      	; 0x1906 <Machine_Lcd_Updat+0xc2>
    1904:	65 c0       	rjmp	.+202    	; 0x19d0 <Machine_Lcd_Updat+0x18c>
    1906:	de 01       	movw	r26, r28
    1908:	16 96       	adiw	r26, 0x06	; 6
    190a:	ea e0       	ldi	r30, 0x0A	; 10
    190c:	f1 e0       	ldi	r31, 0x01	; 1
    190e:	86 e0       	ldi	r24, 0x06	; 6
    1910:	01 90       	ld	r0, Z+
    1912:	0d 92       	st	X+, r0
    1914:	81 50       	subi	r24, 0x01	; 1
    1916:	e1 f7       	brne	.-8      	; 0x1910 <Machine_Lcd_Updat+0xcc>
    1918:	83 e0       	ldi	r24, 0x03	; 3
    191a:	0e 94 ad 0b 	call	0x175a	; 0x175a <clear_lcd_lin_num>
    191e:	84 e0       	ldi	r24, 0x04	; 4
    1920:	0e 94 ad 0b 	call	0x175a	; 0x175a <clear_lcd_lin_num>
    1924:	8d e7       	ldi	r24, 0x7D	; 125
    1926:	91 e0       	ldi	r25, 0x01	; 1
    1928:	63 e0       	ldi	r22, 0x03	; 3
    192a:	4f e0       	ldi	r20, 0x0F	; 15
    192c:	9e 01       	movw	r18, r28
    192e:	2a 5f       	subi	r18, 0xFA	; 250
    1930:	3f 4f       	sbci	r19, 0xFF	; 255
    1932:	0e 94 eb 09 	call	0x13d6	; 0x13d6 <lcd_4bit_send_string_pos>
    1936:	82 e0       	ldi	r24, 0x02	; 2
    1938:	80 93 fd 01 	sts	0x01FD, r24
    193c:	49 c0       	rjmp	.+146    	; 0x19d0 <Machine_Lcd_Updat+0x18c>
    193e:	80 91 fe 01 	lds	r24, 0x01FE
    1942:	88 23       	and	r24, r24
    1944:	d9 f4       	brne	.+54     	; 0x197c <Machine_Lcd_Updat+0x138>
    1946:	de 01       	movw	r26, r28
    1948:	11 96       	adiw	r26, 0x01	; 1
    194a:	e0 e1       	ldi	r30, 0x10	; 16
    194c:	f1 e0       	ldi	r31, 0x01	; 1
    194e:	85 e0       	ldi	r24, 0x05	; 5
    1950:	01 90       	ld	r0, Z+
    1952:	0d 92       	st	X+, r0
    1954:	81 50       	subi	r24, 0x01	; 1
    1956:	e1 f7       	brne	.-8      	; 0x1950 <Machine_Lcd_Updat+0x10c>
    1958:	83 e0       	ldi	r24, 0x03	; 3
    195a:	0e 94 ad 0b 	call	0x175a	; 0x175a <clear_lcd_lin_num>
    195e:	84 e0       	ldi	r24, 0x04	; 4
    1960:	0e 94 ad 0b 	call	0x175a	; 0x175a <clear_lcd_lin_num>
    1964:	8d e7       	ldi	r24, 0x7D	; 125
    1966:	91 e0       	ldi	r25, 0x01	; 1
    1968:	63 e0       	ldi	r22, 0x03	; 3
    196a:	4f e0       	ldi	r20, 0x0F	; 15
    196c:	9e 01       	movw	r18, r28
    196e:	2f 5f       	subi	r18, 0xFF	; 255
    1970:	3f 4f       	sbci	r19, 0xFF	; 255
    1972:	0e 94 eb 09 	call	0x13d6	; 0x13d6 <lcd_4bit_send_string_pos>
    1976:	89 e0       	ldi	r24, 0x09	; 9
    1978:	80 93 fe 01 	sts	0x01FE, r24
    197c:	8d e7       	ldi	r24, 0x7D	; 125
    197e:	91 e0       	ldi	r25, 0x01	; 1
    1980:	64 e0       	ldi	r22, 0x04	; 4
    1982:	4f e0       	ldi	r20, 0x0F	; 15
    1984:	20 91 05 02 	lds	r18, 0x0205
    1988:	00 91 04 02 	lds	r16, 0x0204
    198c:	0e 94 20 02 	call	0x440	; 0x440 <Print_Time>
    1990:	6f c0       	rjmp	.+222    	; 0x1a70 <Machine_Lcd_Updat+0x22c>
    1992:	80 91 ff 01 	lds	r24, 0x01FF
    1996:	88 23       	and	r24, r24
    1998:	d9 f4       	brne	.+54     	; 0x19d0 <Machine_Lcd_Updat+0x18c>
    199a:	de 01       	movw	r26, r28
    199c:	1c 96       	adiw	r26, 0x0c	; 12
    199e:	e5 e1       	ldi	r30, 0x15	; 21
    19a0:	f1 e0       	ldi	r31, 0x01	; 1
    19a2:	87 e0       	ldi	r24, 0x07	; 7
    19a4:	01 90       	ld	r0, Z+
    19a6:	0d 92       	st	X+, r0
    19a8:	81 50       	subi	r24, 0x01	; 1
    19aa:	e1 f7       	brne	.-8      	; 0x19a4 <Machine_Lcd_Updat+0x160>
    19ac:	83 e0       	ldi	r24, 0x03	; 3
    19ae:	0e 94 ad 0b 	call	0x175a	; 0x175a <clear_lcd_lin_num>
    19b2:	84 e0       	ldi	r24, 0x04	; 4
    19b4:	0e 94 ad 0b 	call	0x175a	; 0x175a <clear_lcd_lin_num>
    19b8:	8d e7       	ldi	r24, 0x7D	; 125
    19ba:	91 e0       	ldi	r25, 0x01	; 1
    19bc:	63 e0       	ldi	r22, 0x03	; 3
    19be:	4f e0       	ldi	r20, 0x0F	; 15
    19c0:	9e 01       	movw	r18, r28
    19c2:	24 5f       	subi	r18, 0xF4	; 244
    19c4:	3f 4f       	sbci	r19, 0xFF	; 255
    19c6:	0e 94 eb 09 	call	0x13d6	; 0x13d6 <lcd_4bit_send_string_pos>
    19ca:	82 e4       	ldi	r24, 0x42	; 66
    19cc:	80 93 ff 01 	sts	0x01FF, r24
    19d0:	8d e7       	ldi	r24, 0x7D	; 125
    19d2:	91 e0       	ldi	r25, 0x01	; 1
    19d4:	64 e0       	ldi	r22, 0x04	; 4
    19d6:	4f e0       	ldi	r20, 0x0F	; 15
    19d8:	20 91 02 02 	lds	r18, 0x0202
    19dc:	00 91 07 02 	lds	r16, 0x0207
    19e0:	d5 cf       	rjmp	.-86     	; 0x198c <Machine_Lcd_Updat+0x148>
    19e2:	80 91 00 02 	lds	r24, 0x0200
    19e6:	88 23       	and	r24, r24
    19e8:	d9 f4       	brne	.+54     	; 0x1a20 <Machine_Lcd_Updat+0x1dc>
    19ea:	de 01       	movw	r26, r28
    19ec:	16 96       	adiw	r26, 0x06	; 6
    19ee:	ec e1       	ldi	r30, 0x1C	; 28
    19f0:	f1 e0       	ldi	r31, 0x01	; 1
    19f2:	86 e0       	ldi	r24, 0x06	; 6
    19f4:	01 90       	ld	r0, Z+
    19f6:	0d 92       	st	X+, r0
    19f8:	81 50       	subi	r24, 0x01	; 1
    19fa:	e1 f7       	brne	.-8      	; 0x19f4 <Machine_Lcd_Updat+0x1b0>
    19fc:	83 e0       	ldi	r24, 0x03	; 3
    19fe:	0e 94 ad 0b 	call	0x175a	; 0x175a <clear_lcd_lin_num>
    1a02:	84 e0       	ldi	r24, 0x04	; 4
    1a04:	0e 94 ad 0b 	call	0x175a	; 0x175a <clear_lcd_lin_num>
    1a08:	8d e7       	ldi	r24, 0x7D	; 125
    1a0a:	91 e0       	ldi	r25, 0x01	; 1
    1a0c:	63 e0       	ldi	r22, 0x03	; 3
    1a0e:	4f e0       	ldi	r20, 0x0F	; 15
    1a10:	9e 01       	movw	r18, r28
    1a12:	2a 5f       	subi	r18, 0xFA	; 250
    1a14:	3f 4f       	sbci	r19, 0xFF	; 255
    1a16:	0e 94 eb 09 	call	0x13d6	; 0x13d6 <lcd_4bit_send_string_pos>
    1a1a:	86 e1       	ldi	r24, 0x16	; 22
    1a1c:	80 93 00 02 	sts	0x0200, r24
    1a20:	8d e7       	ldi	r24, 0x7D	; 125
    1a22:	91 e0       	ldi	r25, 0x01	; 1
    1a24:	64 e0       	ldi	r22, 0x04	; 4
    1a26:	4f e0       	ldi	r20, 0x0F	; 15
    1a28:	20 91 03 02 	lds	r18, 0x0203
    1a2c:	00 91 06 02 	lds	r16, 0x0206
    1a30:	ad cf       	rjmp	.-166    	; 0x198c <Machine_Lcd_Updat+0x148>
    1a32:	80 91 01 02 	lds	r24, 0x0201
    1a36:	88 23       	and	r24, r24
    1a38:	d9 f4       	brne	.+54     	; 0x1a70 <Machine_Lcd_Updat+0x22c>
    1a3a:	de 01       	movw	r26, r28
    1a3c:	53 96       	adiw	r26, 0x13	; 19
    1a3e:	e2 e2       	ldi	r30, 0x22	; 34
    1a40:	f1 e0       	ldi	r31, 0x01	; 1
    1a42:	8b e0       	ldi	r24, 0x0B	; 11
    1a44:	01 90       	ld	r0, Z+
    1a46:	0d 92       	st	X+, r0
    1a48:	81 50       	subi	r24, 0x01	; 1
    1a4a:	e1 f7       	brne	.-8      	; 0x1a44 <Machine_Lcd_Updat+0x200>
    1a4c:	83 e0       	ldi	r24, 0x03	; 3
    1a4e:	0e 94 ad 0b 	call	0x175a	; 0x175a <clear_lcd_lin_num>
    1a52:	84 e0       	ldi	r24, 0x04	; 4
    1a54:	0e 94 ad 0b 	call	0x175a	; 0x175a <clear_lcd_lin_num>
    1a58:	8d e7       	ldi	r24, 0x7D	; 125
    1a5a:	91 e0       	ldi	r25, 0x01	; 1
    1a5c:	63 e0       	ldi	r22, 0x03	; 3
    1a5e:	41 e0       	ldi	r20, 0x01	; 1
    1a60:	9e 01       	movw	r18, r28
    1a62:	2d 5e       	subi	r18, 0xED	; 237
    1a64:	3f 4f       	sbci	r19, 0xFF	; 255
    1a66:	0e 94 eb 09 	call	0x13d6	; 0x13d6 <lcd_4bit_send_string_pos>
    1a6a:	88 e5       	ldi	r24, 0x58	; 88
    1a6c:	80 93 01 02 	sts	0x0201, r24
    1a70:	c0 5c       	subi	r28, 0xC0	; 192
    1a72:	df 4f       	sbci	r29, 0xFF	; 255
    1a74:	0f b6       	in	r0, 0x3f	; 63
    1a76:	f8 94       	cli
    1a78:	de bf       	out	0x3e, r29	; 62
    1a7a:	0f be       	out	0x3f, r0	; 63
    1a7c:	cd bf       	out	0x3d, r28	; 61
    1a7e:	cf 91       	pop	r28
    1a80:	df 91       	pop	r29
    1a82:	0f 91       	pop	r16
    1a84:	08 95       	ret

00001a86 <Machine_Process_function>:
    1a86:	0e 94 4b 00 	call	0x96	; 0x96 <Machine_Select_Mode>
    1a8a:	80 91 2e 01 	lds	r24, 0x012E
    1a8e:	88 23       	and	r24, r24
    1a90:	19 f0       	breq	.+6      	; 0x1a98 <Machine_Process_function+0x12>
    1a92:	81 30       	cpi	r24, 0x01	; 1
    1a94:	31 f4       	brne	.+12     	; 0x1aa2 <Machine_Process_function+0x1c>
    1a96:	03 c0       	rjmp	.+6      	; 0x1a9e <Machine_Process_function+0x18>
    1a98:	0e 94 f2 02 	call	0x5e4	; 0x5e4 <Machine_Auto_Process>
    1a9c:	08 95       	ret
    1a9e:	0e 94 ed 00 	call	0x1da	; 0x1da <Machine_Manual_Process>
    1aa2:	08 95       	ret

00001aa4 <main>:
    1aa4:	0e 94 d7 07 	call	0xfae	; 0xfae <Ecu_Init>
    1aa8:	0e 94 d9 0b 	call	0x17b2	; 0x17b2 <Machine_Lcd_Init>
    1aac:	0e 94 43 0d 	call	0x1a86	; 0x1a86 <Machine_Process_function>
    1ab0:	0e 94 22 0c 	call	0x1844	; 0x1844 <Machine_Lcd_Updat>
    1ab4:	fb cf       	rjmp	.-10     	; 0x1aac <main+0x8>

00001ab6 <sprintf>:
    1ab6:	ae e0       	ldi	r26, 0x0E	; 14
    1ab8:	b0 e0       	ldi	r27, 0x00	; 0
    1aba:	e1 e6       	ldi	r30, 0x61	; 97
    1abc:	fd e0       	ldi	r31, 0x0D	; 13
    1abe:	0c 94 0a 10 	jmp	0x2014	; 0x2014 <__prologue_saves__+0x1c>
    1ac2:	0d 89       	ldd	r16, Y+21	; 0x15
    1ac4:	1e 89       	ldd	r17, Y+22	; 0x16
    1ac6:	86 e0       	ldi	r24, 0x06	; 6
    1ac8:	8c 83       	std	Y+4, r24	; 0x04
    1aca:	1a 83       	std	Y+2, r17	; 0x02
    1acc:	09 83       	std	Y+1, r16	; 0x01
    1ace:	8f ef       	ldi	r24, 0xFF	; 255
    1ad0:	9f e7       	ldi	r25, 0x7F	; 127
    1ad2:	9e 83       	std	Y+6, r25	; 0x06
    1ad4:	8d 83       	std	Y+5, r24	; 0x05
    1ad6:	9e 01       	movw	r18, r28
    1ad8:	27 5e       	subi	r18, 0xE7	; 231
    1ada:	3f 4f       	sbci	r19, 0xFF	; 255
    1adc:	ce 01       	movw	r24, r28
    1ade:	01 96       	adiw	r24, 0x01	; 1
    1ae0:	6f 89       	ldd	r22, Y+23	; 0x17
    1ae2:	78 8d       	ldd	r23, Y+24	; 0x18
    1ae4:	a9 01       	movw	r20, r18
    1ae6:	0e 94 7f 0d 	call	0x1afe	; 0x1afe <vfprintf>
    1aea:	2f 81       	ldd	r18, Y+7	; 0x07
    1aec:	38 85       	ldd	r19, Y+8	; 0x08
    1aee:	02 0f       	add	r16, r18
    1af0:	13 1f       	adc	r17, r19
    1af2:	f8 01       	movw	r30, r16
    1af4:	10 82       	st	Z, r1
    1af6:	2e 96       	adiw	r28, 0x0e	; 14
    1af8:	e4 e0       	ldi	r30, 0x04	; 4
    1afa:	0c 94 26 10 	jmp	0x204c	; 0x204c <__epilogue_restores__+0x1c>

00001afe <vfprintf>:
    1afe:	ab e0       	ldi	r26, 0x0B	; 11
    1b00:	b0 e0       	ldi	r27, 0x00	; 0
    1b02:	e5 e8       	ldi	r30, 0x85	; 133
    1b04:	fd e0       	ldi	r31, 0x0D	; 13
    1b06:	0c 94 fc 0f 	jmp	0x1ff8	; 0x1ff8 <__prologue_saves__>
    1b0a:	3c 01       	movw	r6, r24
    1b0c:	2b 01       	movw	r4, r22
    1b0e:	5a 01       	movw	r10, r20
    1b10:	fc 01       	movw	r30, r24
    1b12:	17 82       	std	Z+7, r1	; 0x07
    1b14:	16 82       	std	Z+6, r1	; 0x06
    1b16:	83 81       	ldd	r24, Z+3	; 0x03
    1b18:	81 fd       	sbrc	r24, 1
    1b1a:	03 c0       	rjmp	.+6      	; 0x1b22 <vfprintf+0x24>
    1b1c:	6f ef       	ldi	r22, 0xFF	; 255
    1b1e:	7f ef       	ldi	r23, 0xFF	; 255
    1b20:	c6 c1       	rjmp	.+908    	; 0x1eae <vfprintf+0x3b0>
    1b22:	9a e0       	ldi	r25, 0x0A	; 10
    1b24:	89 2e       	mov	r8, r25
    1b26:	1e 01       	movw	r2, r28
    1b28:	08 94       	sec
    1b2a:	21 1c       	adc	r2, r1
    1b2c:	31 1c       	adc	r3, r1
    1b2e:	f3 01       	movw	r30, r6
    1b30:	23 81       	ldd	r18, Z+3	; 0x03
    1b32:	f2 01       	movw	r30, r4
    1b34:	23 fd       	sbrc	r18, 3
    1b36:	85 91       	lpm	r24, Z+
    1b38:	23 ff       	sbrs	r18, 3
    1b3a:	81 91       	ld	r24, Z+
    1b3c:	2f 01       	movw	r4, r30
    1b3e:	88 23       	and	r24, r24
    1b40:	09 f4       	brne	.+2      	; 0x1b44 <vfprintf+0x46>
    1b42:	b2 c1       	rjmp	.+868    	; 0x1ea8 <vfprintf+0x3aa>
    1b44:	85 32       	cpi	r24, 0x25	; 37
    1b46:	39 f4       	brne	.+14     	; 0x1b56 <vfprintf+0x58>
    1b48:	23 fd       	sbrc	r18, 3
    1b4a:	85 91       	lpm	r24, Z+
    1b4c:	23 ff       	sbrs	r18, 3
    1b4e:	81 91       	ld	r24, Z+
    1b50:	2f 01       	movw	r4, r30
    1b52:	85 32       	cpi	r24, 0x25	; 37
    1b54:	29 f4       	brne	.+10     	; 0x1b60 <vfprintf+0x62>
    1b56:	90 e0       	ldi	r25, 0x00	; 0
    1b58:	b3 01       	movw	r22, r6
    1b5a:	0e 94 72 0f 	call	0x1ee4	; 0x1ee4 <fputc>
    1b5e:	e7 cf       	rjmp	.-50     	; 0x1b2e <vfprintf+0x30>
    1b60:	98 2f       	mov	r25, r24
    1b62:	ff 24       	eor	r15, r15
    1b64:	ee 24       	eor	r14, r14
    1b66:	99 24       	eor	r9, r9
    1b68:	ff e1       	ldi	r31, 0x1F	; 31
    1b6a:	ff 15       	cp	r31, r15
    1b6c:	d0 f0       	brcs	.+52     	; 0x1ba2 <vfprintf+0xa4>
    1b6e:	9b 32       	cpi	r25, 0x2B	; 43
    1b70:	69 f0       	breq	.+26     	; 0x1b8c <vfprintf+0x8e>
    1b72:	9c 32       	cpi	r25, 0x2C	; 44
    1b74:	28 f4       	brcc	.+10     	; 0x1b80 <vfprintf+0x82>
    1b76:	90 32       	cpi	r25, 0x20	; 32
    1b78:	59 f0       	breq	.+22     	; 0x1b90 <vfprintf+0x92>
    1b7a:	93 32       	cpi	r25, 0x23	; 35
    1b7c:	91 f4       	brne	.+36     	; 0x1ba2 <vfprintf+0xa4>
    1b7e:	0e c0       	rjmp	.+28     	; 0x1b9c <vfprintf+0x9e>
    1b80:	9d 32       	cpi	r25, 0x2D	; 45
    1b82:	49 f0       	breq	.+18     	; 0x1b96 <vfprintf+0x98>
    1b84:	90 33       	cpi	r25, 0x30	; 48
    1b86:	69 f4       	brne	.+26     	; 0x1ba2 <vfprintf+0xa4>
    1b88:	41 e0       	ldi	r20, 0x01	; 1
    1b8a:	24 c0       	rjmp	.+72     	; 0x1bd4 <vfprintf+0xd6>
    1b8c:	52 e0       	ldi	r21, 0x02	; 2
    1b8e:	f5 2a       	or	r15, r21
    1b90:	84 e0       	ldi	r24, 0x04	; 4
    1b92:	f8 2a       	or	r15, r24
    1b94:	28 c0       	rjmp	.+80     	; 0x1be6 <vfprintf+0xe8>
    1b96:	98 e0       	ldi	r25, 0x08	; 8
    1b98:	f9 2a       	or	r15, r25
    1b9a:	25 c0       	rjmp	.+74     	; 0x1be6 <vfprintf+0xe8>
    1b9c:	e0 e1       	ldi	r30, 0x10	; 16
    1b9e:	fe 2a       	or	r15, r30
    1ba0:	22 c0       	rjmp	.+68     	; 0x1be6 <vfprintf+0xe8>
    1ba2:	f7 fc       	sbrc	r15, 7
    1ba4:	29 c0       	rjmp	.+82     	; 0x1bf8 <vfprintf+0xfa>
    1ba6:	89 2f       	mov	r24, r25
    1ba8:	80 53       	subi	r24, 0x30	; 48
    1baa:	8a 30       	cpi	r24, 0x0A	; 10
    1bac:	70 f4       	brcc	.+28     	; 0x1bca <vfprintf+0xcc>
    1bae:	f6 fe       	sbrs	r15, 6
    1bb0:	05 c0       	rjmp	.+10     	; 0x1bbc <vfprintf+0xbe>
    1bb2:	98 9c       	mul	r9, r8
    1bb4:	90 2c       	mov	r9, r0
    1bb6:	11 24       	eor	r1, r1
    1bb8:	98 0e       	add	r9, r24
    1bba:	15 c0       	rjmp	.+42     	; 0x1be6 <vfprintf+0xe8>
    1bbc:	e8 9c       	mul	r14, r8
    1bbe:	e0 2c       	mov	r14, r0
    1bc0:	11 24       	eor	r1, r1
    1bc2:	e8 0e       	add	r14, r24
    1bc4:	f0 e2       	ldi	r31, 0x20	; 32
    1bc6:	ff 2a       	or	r15, r31
    1bc8:	0e c0       	rjmp	.+28     	; 0x1be6 <vfprintf+0xe8>
    1bca:	9e 32       	cpi	r25, 0x2E	; 46
    1bcc:	29 f4       	brne	.+10     	; 0x1bd8 <vfprintf+0xda>
    1bce:	f6 fc       	sbrc	r15, 6
    1bd0:	6b c1       	rjmp	.+726    	; 0x1ea8 <vfprintf+0x3aa>
    1bd2:	40 e4       	ldi	r20, 0x40	; 64
    1bd4:	f4 2a       	or	r15, r20
    1bd6:	07 c0       	rjmp	.+14     	; 0x1be6 <vfprintf+0xe8>
    1bd8:	9c 36       	cpi	r25, 0x6C	; 108
    1bda:	19 f4       	brne	.+6      	; 0x1be2 <vfprintf+0xe4>
    1bdc:	50 e8       	ldi	r21, 0x80	; 128
    1bde:	f5 2a       	or	r15, r21
    1be0:	02 c0       	rjmp	.+4      	; 0x1be6 <vfprintf+0xe8>
    1be2:	98 36       	cpi	r25, 0x68	; 104
    1be4:	49 f4       	brne	.+18     	; 0x1bf8 <vfprintf+0xfa>
    1be6:	f2 01       	movw	r30, r4
    1be8:	23 fd       	sbrc	r18, 3
    1bea:	95 91       	lpm	r25, Z+
    1bec:	23 ff       	sbrs	r18, 3
    1bee:	91 91       	ld	r25, Z+
    1bf0:	2f 01       	movw	r4, r30
    1bf2:	99 23       	and	r25, r25
    1bf4:	09 f0       	breq	.+2      	; 0x1bf8 <vfprintf+0xfa>
    1bf6:	b8 cf       	rjmp	.-144    	; 0x1b68 <vfprintf+0x6a>
    1bf8:	89 2f       	mov	r24, r25
    1bfa:	85 54       	subi	r24, 0x45	; 69
    1bfc:	83 30       	cpi	r24, 0x03	; 3
    1bfe:	18 f0       	brcs	.+6      	; 0x1c06 <vfprintf+0x108>
    1c00:	80 52       	subi	r24, 0x20	; 32
    1c02:	83 30       	cpi	r24, 0x03	; 3
    1c04:	38 f4       	brcc	.+14     	; 0x1c14 <vfprintf+0x116>
    1c06:	44 e0       	ldi	r20, 0x04	; 4
    1c08:	50 e0       	ldi	r21, 0x00	; 0
    1c0a:	a4 0e       	add	r10, r20
    1c0c:	b5 1e       	adc	r11, r21
    1c0e:	5f e3       	ldi	r21, 0x3F	; 63
    1c10:	59 83       	std	Y+1, r21	; 0x01
    1c12:	0f c0       	rjmp	.+30     	; 0x1c32 <vfprintf+0x134>
    1c14:	93 36       	cpi	r25, 0x63	; 99
    1c16:	31 f0       	breq	.+12     	; 0x1c24 <vfprintf+0x126>
    1c18:	93 37       	cpi	r25, 0x73	; 115
    1c1a:	79 f0       	breq	.+30     	; 0x1c3a <vfprintf+0x13c>
    1c1c:	93 35       	cpi	r25, 0x53	; 83
    1c1e:	09 f0       	breq	.+2      	; 0x1c22 <vfprintf+0x124>
    1c20:	56 c0       	rjmp	.+172    	; 0x1cce <vfprintf+0x1d0>
    1c22:	20 c0       	rjmp	.+64     	; 0x1c64 <vfprintf+0x166>
    1c24:	f5 01       	movw	r30, r10
    1c26:	80 81       	ld	r24, Z
    1c28:	89 83       	std	Y+1, r24	; 0x01
    1c2a:	42 e0       	ldi	r20, 0x02	; 2
    1c2c:	50 e0       	ldi	r21, 0x00	; 0
    1c2e:	a4 0e       	add	r10, r20
    1c30:	b5 1e       	adc	r11, r21
    1c32:	61 01       	movw	r12, r2
    1c34:	01 e0       	ldi	r16, 0x01	; 1
    1c36:	10 e0       	ldi	r17, 0x00	; 0
    1c38:	12 c0       	rjmp	.+36     	; 0x1c5e <vfprintf+0x160>
    1c3a:	f5 01       	movw	r30, r10
    1c3c:	c0 80       	ld	r12, Z
    1c3e:	d1 80       	ldd	r13, Z+1	; 0x01
    1c40:	f6 fc       	sbrc	r15, 6
    1c42:	03 c0       	rjmp	.+6      	; 0x1c4a <vfprintf+0x14c>
    1c44:	6f ef       	ldi	r22, 0xFF	; 255
    1c46:	7f ef       	ldi	r23, 0xFF	; 255
    1c48:	02 c0       	rjmp	.+4      	; 0x1c4e <vfprintf+0x150>
    1c4a:	69 2d       	mov	r22, r9
    1c4c:	70 e0       	ldi	r23, 0x00	; 0
    1c4e:	42 e0       	ldi	r20, 0x02	; 2
    1c50:	50 e0       	ldi	r21, 0x00	; 0
    1c52:	a4 0e       	add	r10, r20
    1c54:	b5 1e       	adc	r11, r21
    1c56:	c6 01       	movw	r24, r12
    1c58:	0e 94 67 0f 	call	0x1ece	; 0x1ece <strnlen>
    1c5c:	8c 01       	movw	r16, r24
    1c5e:	5f e7       	ldi	r21, 0x7F	; 127
    1c60:	f5 22       	and	r15, r21
    1c62:	14 c0       	rjmp	.+40     	; 0x1c8c <vfprintf+0x18e>
    1c64:	f5 01       	movw	r30, r10
    1c66:	c0 80       	ld	r12, Z
    1c68:	d1 80       	ldd	r13, Z+1	; 0x01
    1c6a:	f6 fc       	sbrc	r15, 6
    1c6c:	03 c0       	rjmp	.+6      	; 0x1c74 <vfprintf+0x176>
    1c6e:	6f ef       	ldi	r22, 0xFF	; 255
    1c70:	7f ef       	ldi	r23, 0xFF	; 255
    1c72:	02 c0       	rjmp	.+4      	; 0x1c78 <vfprintf+0x17a>
    1c74:	69 2d       	mov	r22, r9
    1c76:	70 e0       	ldi	r23, 0x00	; 0
    1c78:	42 e0       	ldi	r20, 0x02	; 2
    1c7a:	50 e0       	ldi	r21, 0x00	; 0
    1c7c:	a4 0e       	add	r10, r20
    1c7e:	b5 1e       	adc	r11, r21
    1c80:	c6 01       	movw	r24, r12
    1c82:	0e 94 5c 0f 	call	0x1eb8	; 0x1eb8 <strnlen_P>
    1c86:	8c 01       	movw	r16, r24
    1c88:	50 e8       	ldi	r21, 0x80	; 128
    1c8a:	f5 2a       	or	r15, r21
    1c8c:	f3 fe       	sbrs	r15, 3
    1c8e:	07 c0       	rjmp	.+14     	; 0x1c9e <vfprintf+0x1a0>
    1c90:	1a c0       	rjmp	.+52     	; 0x1cc6 <vfprintf+0x1c8>
    1c92:	80 e2       	ldi	r24, 0x20	; 32
    1c94:	90 e0       	ldi	r25, 0x00	; 0
    1c96:	b3 01       	movw	r22, r6
    1c98:	0e 94 72 0f 	call	0x1ee4	; 0x1ee4 <fputc>
    1c9c:	ea 94       	dec	r14
    1c9e:	8e 2d       	mov	r24, r14
    1ca0:	90 e0       	ldi	r25, 0x00	; 0
    1ca2:	08 17       	cp	r16, r24
    1ca4:	19 07       	cpc	r17, r25
    1ca6:	a8 f3       	brcs	.-22     	; 0x1c92 <vfprintf+0x194>
    1ca8:	0e c0       	rjmp	.+28     	; 0x1cc6 <vfprintf+0x1c8>
    1caa:	f6 01       	movw	r30, r12
    1cac:	f7 fc       	sbrc	r15, 7
    1cae:	85 91       	lpm	r24, Z+
    1cb0:	f7 fe       	sbrs	r15, 7
    1cb2:	81 91       	ld	r24, Z+
    1cb4:	6f 01       	movw	r12, r30
    1cb6:	90 e0       	ldi	r25, 0x00	; 0
    1cb8:	b3 01       	movw	r22, r6
    1cba:	0e 94 72 0f 	call	0x1ee4	; 0x1ee4 <fputc>
    1cbe:	e1 10       	cpse	r14, r1
    1cc0:	ea 94       	dec	r14
    1cc2:	01 50       	subi	r16, 0x01	; 1
    1cc4:	10 40       	sbci	r17, 0x00	; 0
    1cc6:	01 15       	cp	r16, r1
    1cc8:	11 05       	cpc	r17, r1
    1cca:	79 f7       	brne	.-34     	; 0x1caa <vfprintf+0x1ac>
    1ccc:	ea c0       	rjmp	.+468    	; 0x1ea2 <vfprintf+0x3a4>
    1cce:	94 36       	cpi	r25, 0x64	; 100
    1cd0:	11 f0       	breq	.+4      	; 0x1cd6 <vfprintf+0x1d8>
    1cd2:	99 36       	cpi	r25, 0x69	; 105
    1cd4:	69 f5       	brne	.+90     	; 0x1d30 <vfprintf+0x232>
    1cd6:	f7 fe       	sbrs	r15, 7
    1cd8:	08 c0       	rjmp	.+16     	; 0x1cea <vfprintf+0x1ec>
    1cda:	f5 01       	movw	r30, r10
    1cdc:	20 81       	ld	r18, Z
    1cde:	31 81       	ldd	r19, Z+1	; 0x01
    1ce0:	42 81       	ldd	r20, Z+2	; 0x02
    1ce2:	53 81       	ldd	r21, Z+3	; 0x03
    1ce4:	84 e0       	ldi	r24, 0x04	; 4
    1ce6:	90 e0       	ldi	r25, 0x00	; 0
    1ce8:	0a c0       	rjmp	.+20     	; 0x1cfe <vfprintf+0x200>
    1cea:	f5 01       	movw	r30, r10
    1cec:	80 81       	ld	r24, Z
    1cee:	91 81       	ldd	r25, Z+1	; 0x01
    1cf0:	9c 01       	movw	r18, r24
    1cf2:	44 27       	eor	r20, r20
    1cf4:	37 fd       	sbrc	r19, 7
    1cf6:	40 95       	com	r20
    1cf8:	54 2f       	mov	r21, r20
    1cfa:	82 e0       	ldi	r24, 0x02	; 2
    1cfc:	90 e0       	ldi	r25, 0x00	; 0
    1cfe:	a8 0e       	add	r10, r24
    1d00:	b9 1e       	adc	r11, r25
    1d02:	9f e6       	ldi	r25, 0x6F	; 111
    1d04:	f9 22       	and	r15, r25
    1d06:	57 ff       	sbrs	r21, 7
    1d08:	09 c0       	rjmp	.+18     	; 0x1d1c <vfprintf+0x21e>
    1d0a:	50 95       	com	r21
    1d0c:	40 95       	com	r20
    1d0e:	30 95       	com	r19
    1d10:	21 95       	neg	r18
    1d12:	3f 4f       	sbci	r19, 0xFF	; 255
    1d14:	4f 4f       	sbci	r20, 0xFF	; 255
    1d16:	5f 4f       	sbci	r21, 0xFF	; 255
    1d18:	e0 e8       	ldi	r30, 0x80	; 128
    1d1a:	fe 2a       	or	r15, r30
    1d1c:	ca 01       	movw	r24, r20
    1d1e:	b9 01       	movw	r22, r18
    1d20:	a1 01       	movw	r20, r2
    1d22:	2a e0       	ldi	r18, 0x0A	; 10
    1d24:	30 e0       	ldi	r19, 0x00	; 0
    1d26:	0e 94 9e 0f 	call	0x1f3c	; 0x1f3c <__ultoa_invert>
    1d2a:	d8 2e       	mov	r13, r24
    1d2c:	d2 18       	sub	r13, r2
    1d2e:	40 c0       	rjmp	.+128    	; 0x1db0 <vfprintf+0x2b2>
    1d30:	95 37       	cpi	r25, 0x75	; 117
    1d32:	29 f4       	brne	.+10     	; 0x1d3e <vfprintf+0x240>
    1d34:	1f 2d       	mov	r17, r15
    1d36:	1f 7e       	andi	r17, 0xEF	; 239
    1d38:	2a e0       	ldi	r18, 0x0A	; 10
    1d3a:	30 e0       	ldi	r19, 0x00	; 0
    1d3c:	1d c0       	rjmp	.+58     	; 0x1d78 <vfprintf+0x27a>
    1d3e:	1f 2d       	mov	r17, r15
    1d40:	19 7f       	andi	r17, 0xF9	; 249
    1d42:	9f 36       	cpi	r25, 0x6F	; 111
    1d44:	61 f0       	breq	.+24     	; 0x1d5e <vfprintf+0x260>
    1d46:	90 37       	cpi	r25, 0x70	; 112
    1d48:	20 f4       	brcc	.+8      	; 0x1d52 <vfprintf+0x254>
    1d4a:	98 35       	cpi	r25, 0x58	; 88
    1d4c:	09 f0       	breq	.+2      	; 0x1d50 <vfprintf+0x252>
    1d4e:	ac c0       	rjmp	.+344    	; 0x1ea8 <vfprintf+0x3aa>
    1d50:	0f c0       	rjmp	.+30     	; 0x1d70 <vfprintf+0x272>
    1d52:	90 37       	cpi	r25, 0x70	; 112
    1d54:	39 f0       	breq	.+14     	; 0x1d64 <vfprintf+0x266>
    1d56:	98 37       	cpi	r25, 0x78	; 120
    1d58:	09 f0       	breq	.+2      	; 0x1d5c <vfprintf+0x25e>
    1d5a:	a6 c0       	rjmp	.+332    	; 0x1ea8 <vfprintf+0x3aa>
    1d5c:	04 c0       	rjmp	.+8      	; 0x1d66 <vfprintf+0x268>
    1d5e:	28 e0       	ldi	r18, 0x08	; 8
    1d60:	30 e0       	ldi	r19, 0x00	; 0
    1d62:	0a c0       	rjmp	.+20     	; 0x1d78 <vfprintf+0x27a>
    1d64:	10 61       	ori	r17, 0x10	; 16
    1d66:	14 fd       	sbrc	r17, 4
    1d68:	14 60       	ori	r17, 0x04	; 4
    1d6a:	20 e1       	ldi	r18, 0x10	; 16
    1d6c:	30 e0       	ldi	r19, 0x00	; 0
    1d6e:	04 c0       	rjmp	.+8      	; 0x1d78 <vfprintf+0x27a>
    1d70:	14 fd       	sbrc	r17, 4
    1d72:	16 60       	ori	r17, 0x06	; 6
    1d74:	20 e1       	ldi	r18, 0x10	; 16
    1d76:	32 e0       	ldi	r19, 0x02	; 2
    1d78:	17 ff       	sbrs	r17, 7
    1d7a:	08 c0       	rjmp	.+16     	; 0x1d8c <vfprintf+0x28e>
    1d7c:	f5 01       	movw	r30, r10
    1d7e:	60 81       	ld	r22, Z
    1d80:	71 81       	ldd	r23, Z+1	; 0x01
    1d82:	82 81       	ldd	r24, Z+2	; 0x02
    1d84:	93 81       	ldd	r25, Z+3	; 0x03
    1d86:	44 e0       	ldi	r20, 0x04	; 4
    1d88:	50 e0       	ldi	r21, 0x00	; 0
    1d8a:	08 c0       	rjmp	.+16     	; 0x1d9c <vfprintf+0x29e>
    1d8c:	f5 01       	movw	r30, r10
    1d8e:	80 81       	ld	r24, Z
    1d90:	91 81       	ldd	r25, Z+1	; 0x01
    1d92:	bc 01       	movw	r22, r24
    1d94:	80 e0       	ldi	r24, 0x00	; 0
    1d96:	90 e0       	ldi	r25, 0x00	; 0
    1d98:	42 e0       	ldi	r20, 0x02	; 2
    1d9a:	50 e0       	ldi	r21, 0x00	; 0
    1d9c:	a4 0e       	add	r10, r20
    1d9e:	b5 1e       	adc	r11, r21
    1da0:	a1 01       	movw	r20, r2
    1da2:	0e 94 9e 0f 	call	0x1f3c	; 0x1f3c <__ultoa_invert>
    1da6:	d8 2e       	mov	r13, r24
    1da8:	d2 18       	sub	r13, r2
    1daa:	8f e7       	ldi	r24, 0x7F	; 127
    1dac:	f8 2e       	mov	r15, r24
    1dae:	f1 22       	and	r15, r17
    1db0:	f6 fe       	sbrs	r15, 6
    1db2:	0b c0       	rjmp	.+22     	; 0x1dca <vfprintf+0x2cc>
    1db4:	5e ef       	ldi	r21, 0xFE	; 254
    1db6:	f5 22       	and	r15, r21
    1db8:	d9 14       	cp	r13, r9
    1dba:	38 f4       	brcc	.+14     	; 0x1dca <vfprintf+0x2cc>
    1dbc:	f4 fe       	sbrs	r15, 4
    1dbe:	07 c0       	rjmp	.+14     	; 0x1dce <vfprintf+0x2d0>
    1dc0:	f2 fc       	sbrc	r15, 2
    1dc2:	05 c0       	rjmp	.+10     	; 0x1dce <vfprintf+0x2d0>
    1dc4:	8f ee       	ldi	r24, 0xEF	; 239
    1dc6:	f8 22       	and	r15, r24
    1dc8:	02 c0       	rjmp	.+4      	; 0x1dce <vfprintf+0x2d0>
    1dca:	1d 2d       	mov	r17, r13
    1dcc:	01 c0       	rjmp	.+2      	; 0x1dd0 <vfprintf+0x2d2>
    1dce:	19 2d       	mov	r17, r9
    1dd0:	f4 fe       	sbrs	r15, 4
    1dd2:	0d c0       	rjmp	.+26     	; 0x1dee <vfprintf+0x2f0>
    1dd4:	fe 01       	movw	r30, r28
    1dd6:	ed 0d       	add	r30, r13
    1dd8:	f1 1d       	adc	r31, r1
    1dda:	80 81       	ld	r24, Z
    1ddc:	80 33       	cpi	r24, 0x30	; 48
    1dde:	19 f4       	brne	.+6      	; 0x1de6 <vfprintf+0x2e8>
    1de0:	99 ee       	ldi	r25, 0xE9	; 233
    1de2:	f9 22       	and	r15, r25
    1de4:	08 c0       	rjmp	.+16     	; 0x1df6 <vfprintf+0x2f8>
    1de6:	1f 5f       	subi	r17, 0xFF	; 255
    1de8:	f2 fe       	sbrs	r15, 2
    1dea:	05 c0       	rjmp	.+10     	; 0x1df6 <vfprintf+0x2f8>
    1dec:	03 c0       	rjmp	.+6      	; 0x1df4 <vfprintf+0x2f6>
    1dee:	8f 2d       	mov	r24, r15
    1df0:	86 78       	andi	r24, 0x86	; 134
    1df2:	09 f0       	breq	.+2      	; 0x1df6 <vfprintf+0x2f8>
    1df4:	1f 5f       	subi	r17, 0xFF	; 255
    1df6:	0f 2d       	mov	r16, r15
    1df8:	f3 fc       	sbrc	r15, 3
    1dfa:	14 c0       	rjmp	.+40     	; 0x1e24 <vfprintf+0x326>
    1dfc:	f0 fe       	sbrs	r15, 0
    1dfe:	0f c0       	rjmp	.+30     	; 0x1e1e <vfprintf+0x320>
    1e00:	1e 15       	cp	r17, r14
    1e02:	10 f0       	brcs	.+4      	; 0x1e08 <vfprintf+0x30a>
    1e04:	9d 2c       	mov	r9, r13
    1e06:	0b c0       	rjmp	.+22     	; 0x1e1e <vfprintf+0x320>
    1e08:	9d 2c       	mov	r9, r13
    1e0a:	9e 0c       	add	r9, r14
    1e0c:	91 1a       	sub	r9, r17
    1e0e:	1e 2d       	mov	r17, r14
    1e10:	06 c0       	rjmp	.+12     	; 0x1e1e <vfprintf+0x320>
    1e12:	80 e2       	ldi	r24, 0x20	; 32
    1e14:	90 e0       	ldi	r25, 0x00	; 0
    1e16:	b3 01       	movw	r22, r6
    1e18:	0e 94 72 0f 	call	0x1ee4	; 0x1ee4 <fputc>
    1e1c:	1f 5f       	subi	r17, 0xFF	; 255
    1e1e:	1e 15       	cp	r17, r14
    1e20:	c0 f3       	brcs	.-16     	; 0x1e12 <vfprintf+0x314>
    1e22:	04 c0       	rjmp	.+8      	; 0x1e2c <vfprintf+0x32e>
    1e24:	1e 15       	cp	r17, r14
    1e26:	10 f4       	brcc	.+4      	; 0x1e2c <vfprintf+0x32e>
    1e28:	e1 1a       	sub	r14, r17
    1e2a:	01 c0       	rjmp	.+2      	; 0x1e2e <vfprintf+0x330>
    1e2c:	ee 24       	eor	r14, r14
    1e2e:	04 ff       	sbrs	r16, 4
    1e30:	0f c0       	rjmp	.+30     	; 0x1e50 <vfprintf+0x352>
    1e32:	80 e3       	ldi	r24, 0x30	; 48
    1e34:	90 e0       	ldi	r25, 0x00	; 0
    1e36:	b3 01       	movw	r22, r6
    1e38:	0e 94 72 0f 	call	0x1ee4	; 0x1ee4 <fputc>
    1e3c:	02 ff       	sbrs	r16, 2
    1e3e:	1d c0       	rjmp	.+58     	; 0x1e7a <vfprintf+0x37c>
    1e40:	01 fd       	sbrc	r16, 1
    1e42:	03 c0       	rjmp	.+6      	; 0x1e4a <vfprintf+0x34c>
    1e44:	88 e7       	ldi	r24, 0x78	; 120
    1e46:	90 e0       	ldi	r25, 0x00	; 0
    1e48:	0e c0       	rjmp	.+28     	; 0x1e66 <vfprintf+0x368>
    1e4a:	88 e5       	ldi	r24, 0x58	; 88
    1e4c:	90 e0       	ldi	r25, 0x00	; 0
    1e4e:	0b c0       	rjmp	.+22     	; 0x1e66 <vfprintf+0x368>
    1e50:	80 2f       	mov	r24, r16
    1e52:	86 78       	andi	r24, 0x86	; 134
    1e54:	91 f0       	breq	.+36     	; 0x1e7a <vfprintf+0x37c>
    1e56:	01 ff       	sbrs	r16, 1
    1e58:	02 c0       	rjmp	.+4      	; 0x1e5e <vfprintf+0x360>
    1e5a:	8b e2       	ldi	r24, 0x2B	; 43
    1e5c:	01 c0       	rjmp	.+2      	; 0x1e60 <vfprintf+0x362>
    1e5e:	80 e2       	ldi	r24, 0x20	; 32
    1e60:	f7 fc       	sbrc	r15, 7
    1e62:	8d e2       	ldi	r24, 0x2D	; 45
    1e64:	90 e0       	ldi	r25, 0x00	; 0
    1e66:	b3 01       	movw	r22, r6
    1e68:	0e 94 72 0f 	call	0x1ee4	; 0x1ee4 <fputc>
    1e6c:	06 c0       	rjmp	.+12     	; 0x1e7a <vfprintf+0x37c>
    1e6e:	80 e3       	ldi	r24, 0x30	; 48
    1e70:	90 e0       	ldi	r25, 0x00	; 0
    1e72:	b3 01       	movw	r22, r6
    1e74:	0e 94 72 0f 	call	0x1ee4	; 0x1ee4 <fputc>
    1e78:	9a 94       	dec	r9
    1e7a:	d9 14       	cp	r13, r9
    1e7c:	c0 f3       	brcs	.-16     	; 0x1e6e <vfprintf+0x370>
    1e7e:	da 94       	dec	r13
    1e80:	f1 01       	movw	r30, r2
    1e82:	ed 0d       	add	r30, r13
    1e84:	f1 1d       	adc	r31, r1
    1e86:	80 81       	ld	r24, Z
    1e88:	90 e0       	ldi	r25, 0x00	; 0
    1e8a:	b3 01       	movw	r22, r6
    1e8c:	0e 94 72 0f 	call	0x1ee4	; 0x1ee4 <fputc>
    1e90:	dd 20       	and	r13, r13
    1e92:	a9 f7       	brne	.-22     	; 0x1e7e <vfprintf+0x380>
    1e94:	06 c0       	rjmp	.+12     	; 0x1ea2 <vfprintf+0x3a4>
    1e96:	80 e2       	ldi	r24, 0x20	; 32
    1e98:	90 e0       	ldi	r25, 0x00	; 0
    1e9a:	b3 01       	movw	r22, r6
    1e9c:	0e 94 72 0f 	call	0x1ee4	; 0x1ee4 <fputc>
    1ea0:	ea 94       	dec	r14
    1ea2:	ee 20       	and	r14, r14
    1ea4:	c1 f7       	brne	.-16     	; 0x1e96 <vfprintf+0x398>
    1ea6:	43 ce       	rjmp	.-890    	; 0x1b2e <vfprintf+0x30>
    1ea8:	f3 01       	movw	r30, r6
    1eaa:	66 81       	ldd	r22, Z+6	; 0x06
    1eac:	77 81       	ldd	r23, Z+7	; 0x07
    1eae:	cb 01       	movw	r24, r22
    1eb0:	2b 96       	adiw	r28, 0x0b	; 11
    1eb2:	e2 e1       	ldi	r30, 0x12	; 18
    1eb4:	0c 94 18 10 	jmp	0x2030	; 0x2030 <__epilogue_restores__>

00001eb8 <strnlen_P>:
    1eb8:	fc 01       	movw	r30, r24
    1eba:	05 90       	lpm	r0, Z+
    1ebc:	61 50       	subi	r22, 0x01	; 1
    1ebe:	70 40       	sbci	r23, 0x00	; 0
    1ec0:	01 10       	cpse	r0, r1
    1ec2:	d8 f7       	brcc	.-10     	; 0x1eba <strnlen_P+0x2>
    1ec4:	80 95       	com	r24
    1ec6:	90 95       	com	r25
    1ec8:	8e 0f       	add	r24, r30
    1eca:	9f 1f       	adc	r25, r31
    1ecc:	08 95       	ret

00001ece <strnlen>:
    1ece:	fc 01       	movw	r30, r24
    1ed0:	61 50       	subi	r22, 0x01	; 1
    1ed2:	70 40       	sbci	r23, 0x00	; 0
    1ed4:	01 90       	ld	r0, Z+
    1ed6:	01 10       	cpse	r0, r1
    1ed8:	d8 f7       	brcc	.-10     	; 0x1ed0 <strnlen+0x2>
    1eda:	80 95       	com	r24
    1edc:	90 95       	com	r25
    1ede:	8e 0f       	add	r24, r30
    1ee0:	9f 1f       	adc	r25, r31
    1ee2:	08 95       	ret

00001ee4 <fputc>:
    1ee4:	0f 93       	push	r16
    1ee6:	1f 93       	push	r17
    1ee8:	cf 93       	push	r28
    1eea:	df 93       	push	r29
    1eec:	8c 01       	movw	r16, r24
    1eee:	eb 01       	movw	r28, r22
    1ef0:	8b 81       	ldd	r24, Y+3	; 0x03
    1ef2:	81 ff       	sbrs	r24, 1
    1ef4:	1b c0       	rjmp	.+54     	; 0x1f2c <fputc+0x48>
    1ef6:	82 ff       	sbrs	r24, 2
    1ef8:	0d c0       	rjmp	.+26     	; 0x1f14 <fputc+0x30>
    1efa:	2e 81       	ldd	r18, Y+6	; 0x06
    1efc:	3f 81       	ldd	r19, Y+7	; 0x07
    1efe:	8c 81       	ldd	r24, Y+4	; 0x04
    1f00:	9d 81       	ldd	r25, Y+5	; 0x05
    1f02:	28 17       	cp	r18, r24
    1f04:	39 07       	cpc	r19, r25
    1f06:	64 f4       	brge	.+24     	; 0x1f20 <fputc+0x3c>
    1f08:	e8 81       	ld	r30, Y
    1f0a:	f9 81       	ldd	r31, Y+1	; 0x01
    1f0c:	01 93       	st	Z+, r16
    1f0e:	f9 83       	std	Y+1, r31	; 0x01
    1f10:	e8 83       	st	Y, r30
    1f12:	06 c0       	rjmp	.+12     	; 0x1f20 <fputc+0x3c>
    1f14:	e8 85       	ldd	r30, Y+8	; 0x08
    1f16:	f9 85       	ldd	r31, Y+9	; 0x09
    1f18:	80 2f       	mov	r24, r16
    1f1a:	09 95       	icall
    1f1c:	89 2b       	or	r24, r25
    1f1e:	31 f4       	brne	.+12     	; 0x1f2c <fputc+0x48>
    1f20:	8e 81       	ldd	r24, Y+6	; 0x06
    1f22:	9f 81       	ldd	r25, Y+7	; 0x07
    1f24:	01 96       	adiw	r24, 0x01	; 1
    1f26:	9f 83       	std	Y+7, r25	; 0x07
    1f28:	8e 83       	std	Y+6, r24	; 0x06
    1f2a:	02 c0       	rjmp	.+4      	; 0x1f30 <fputc+0x4c>
    1f2c:	0f ef       	ldi	r16, 0xFF	; 255
    1f2e:	1f ef       	ldi	r17, 0xFF	; 255
    1f30:	c8 01       	movw	r24, r16
    1f32:	df 91       	pop	r29
    1f34:	cf 91       	pop	r28
    1f36:	1f 91       	pop	r17
    1f38:	0f 91       	pop	r16
    1f3a:	08 95       	ret

00001f3c <__ultoa_invert>:
    1f3c:	fa 01       	movw	r30, r20
    1f3e:	aa 27       	eor	r26, r26
    1f40:	28 30       	cpi	r18, 0x08	; 8
    1f42:	51 f1       	breq	.+84     	; 0x1f98 <__ultoa_invert+0x5c>
    1f44:	20 31       	cpi	r18, 0x10	; 16
    1f46:	81 f1       	breq	.+96     	; 0x1fa8 <__ultoa_invert+0x6c>
    1f48:	e8 94       	clt
    1f4a:	6f 93       	push	r22
    1f4c:	6e 7f       	andi	r22, 0xFE	; 254
    1f4e:	6e 5f       	subi	r22, 0xFE	; 254
    1f50:	7f 4f       	sbci	r23, 0xFF	; 255
    1f52:	8f 4f       	sbci	r24, 0xFF	; 255
    1f54:	9f 4f       	sbci	r25, 0xFF	; 255
    1f56:	af 4f       	sbci	r26, 0xFF	; 255
    1f58:	b1 e0       	ldi	r27, 0x01	; 1
    1f5a:	3e d0       	rcall	.+124    	; 0x1fd8 <__ultoa_invert+0x9c>
    1f5c:	b4 e0       	ldi	r27, 0x04	; 4
    1f5e:	3c d0       	rcall	.+120    	; 0x1fd8 <__ultoa_invert+0x9c>
    1f60:	67 0f       	add	r22, r23
    1f62:	78 1f       	adc	r23, r24
    1f64:	89 1f       	adc	r24, r25
    1f66:	9a 1f       	adc	r25, r26
    1f68:	a1 1d       	adc	r26, r1
    1f6a:	68 0f       	add	r22, r24
    1f6c:	79 1f       	adc	r23, r25
    1f6e:	8a 1f       	adc	r24, r26
    1f70:	91 1d       	adc	r25, r1
    1f72:	a1 1d       	adc	r26, r1
    1f74:	6a 0f       	add	r22, r26
    1f76:	71 1d       	adc	r23, r1
    1f78:	81 1d       	adc	r24, r1
    1f7a:	91 1d       	adc	r25, r1
    1f7c:	a1 1d       	adc	r26, r1
    1f7e:	20 d0       	rcall	.+64     	; 0x1fc0 <__ultoa_invert+0x84>
    1f80:	09 f4       	brne	.+2      	; 0x1f84 <__ultoa_invert+0x48>
    1f82:	68 94       	set
    1f84:	3f 91       	pop	r19
    1f86:	2a e0       	ldi	r18, 0x0A	; 10
    1f88:	26 9f       	mul	r18, r22
    1f8a:	11 24       	eor	r1, r1
    1f8c:	30 19       	sub	r19, r0
    1f8e:	30 5d       	subi	r19, 0xD0	; 208
    1f90:	31 93       	st	Z+, r19
    1f92:	de f6       	brtc	.-74     	; 0x1f4a <__ultoa_invert+0xe>
    1f94:	cf 01       	movw	r24, r30
    1f96:	08 95       	ret
    1f98:	46 2f       	mov	r20, r22
    1f9a:	47 70       	andi	r20, 0x07	; 7
    1f9c:	40 5d       	subi	r20, 0xD0	; 208
    1f9e:	41 93       	st	Z+, r20
    1fa0:	b3 e0       	ldi	r27, 0x03	; 3
    1fa2:	0f d0       	rcall	.+30     	; 0x1fc2 <__ultoa_invert+0x86>
    1fa4:	c9 f7       	brne	.-14     	; 0x1f98 <__ultoa_invert+0x5c>
    1fa6:	f6 cf       	rjmp	.-20     	; 0x1f94 <__ultoa_invert+0x58>
    1fa8:	46 2f       	mov	r20, r22
    1faa:	4f 70       	andi	r20, 0x0F	; 15
    1fac:	40 5d       	subi	r20, 0xD0	; 208
    1fae:	4a 33       	cpi	r20, 0x3A	; 58
    1fb0:	18 f0       	brcs	.+6      	; 0x1fb8 <__ultoa_invert+0x7c>
    1fb2:	49 5d       	subi	r20, 0xD9	; 217
    1fb4:	31 fd       	sbrc	r19, 1
    1fb6:	40 52       	subi	r20, 0x20	; 32
    1fb8:	41 93       	st	Z+, r20
    1fba:	02 d0       	rcall	.+4      	; 0x1fc0 <__ultoa_invert+0x84>
    1fbc:	a9 f7       	brne	.-22     	; 0x1fa8 <__ultoa_invert+0x6c>
    1fbe:	ea cf       	rjmp	.-44     	; 0x1f94 <__ultoa_invert+0x58>
    1fc0:	b4 e0       	ldi	r27, 0x04	; 4
    1fc2:	a6 95       	lsr	r26
    1fc4:	97 95       	ror	r25
    1fc6:	87 95       	ror	r24
    1fc8:	77 95       	ror	r23
    1fca:	67 95       	ror	r22
    1fcc:	ba 95       	dec	r27
    1fce:	c9 f7       	brne	.-14     	; 0x1fc2 <__ultoa_invert+0x86>
    1fd0:	00 97       	sbiw	r24, 0x00	; 0
    1fd2:	61 05       	cpc	r22, r1
    1fd4:	71 05       	cpc	r23, r1
    1fd6:	08 95       	ret
    1fd8:	9b 01       	movw	r18, r22
    1fda:	ac 01       	movw	r20, r24
    1fdc:	0a 2e       	mov	r0, r26
    1fde:	06 94       	lsr	r0
    1fe0:	57 95       	ror	r21
    1fe2:	47 95       	ror	r20
    1fe4:	37 95       	ror	r19
    1fe6:	27 95       	ror	r18
    1fe8:	ba 95       	dec	r27
    1fea:	c9 f7       	brne	.-14     	; 0x1fde <__ultoa_invert+0xa2>
    1fec:	62 0f       	add	r22, r18
    1fee:	73 1f       	adc	r23, r19
    1ff0:	84 1f       	adc	r24, r20
    1ff2:	95 1f       	adc	r25, r21
    1ff4:	a0 1d       	adc	r26, r0
    1ff6:	08 95       	ret

00001ff8 <__prologue_saves__>:
    1ff8:	2f 92       	push	r2
    1ffa:	3f 92       	push	r3
    1ffc:	4f 92       	push	r4
    1ffe:	5f 92       	push	r5
    2000:	6f 92       	push	r6
    2002:	7f 92       	push	r7
    2004:	8f 92       	push	r8
    2006:	9f 92       	push	r9
    2008:	af 92       	push	r10
    200a:	bf 92       	push	r11
    200c:	cf 92       	push	r12
    200e:	df 92       	push	r13
    2010:	ef 92       	push	r14
    2012:	ff 92       	push	r15
    2014:	0f 93       	push	r16
    2016:	1f 93       	push	r17
    2018:	cf 93       	push	r28
    201a:	df 93       	push	r29
    201c:	cd b7       	in	r28, 0x3d	; 61
    201e:	de b7       	in	r29, 0x3e	; 62
    2020:	ca 1b       	sub	r28, r26
    2022:	db 0b       	sbc	r29, r27
    2024:	0f b6       	in	r0, 0x3f	; 63
    2026:	f8 94       	cli
    2028:	de bf       	out	0x3e, r29	; 62
    202a:	0f be       	out	0x3f, r0	; 63
    202c:	cd bf       	out	0x3d, r28	; 61
    202e:	09 94       	ijmp

00002030 <__epilogue_restores__>:
    2030:	2a 88       	ldd	r2, Y+18	; 0x12
    2032:	39 88       	ldd	r3, Y+17	; 0x11
    2034:	48 88       	ldd	r4, Y+16	; 0x10
    2036:	5f 84       	ldd	r5, Y+15	; 0x0f
    2038:	6e 84       	ldd	r6, Y+14	; 0x0e
    203a:	7d 84       	ldd	r7, Y+13	; 0x0d
    203c:	8c 84       	ldd	r8, Y+12	; 0x0c
    203e:	9b 84       	ldd	r9, Y+11	; 0x0b
    2040:	aa 84       	ldd	r10, Y+10	; 0x0a
    2042:	b9 84       	ldd	r11, Y+9	; 0x09
    2044:	c8 84       	ldd	r12, Y+8	; 0x08
    2046:	df 80       	ldd	r13, Y+7	; 0x07
    2048:	ee 80       	ldd	r14, Y+6	; 0x06
    204a:	fd 80       	ldd	r15, Y+5	; 0x05
    204c:	0c 81       	ldd	r16, Y+4	; 0x04
    204e:	1b 81       	ldd	r17, Y+3	; 0x03
    2050:	aa 81       	ldd	r26, Y+2	; 0x02
    2052:	b9 81       	ldd	r27, Y+1	; 0x01
    2054:	ce 0f       	add	r28, r30
    2056:	d1 1d       	adc	r29, r1
    2058:	0f b6       	in	r0, 0x3f	; 63
    205a:	f8 94       	cli
    205c:	de bf       	out	0x3e, r29	; 62
    205e:	0f be       	out	0x3f, r0	; 63
    2060:	cd bf       	out	0x3d, r28	; 61
    2062:	ed 01       	movw	r28, r26
    2064:	08 95       	ret

00002066 <_exit>:
    2066:	f8 94       	cli

00002068 <__stop_program>:
    2068:	ff cf       	rjmp	.-2      	; 0x2068 <__stop_program>
